
dual_otu2_multiprotocol_otu2_mxp.elf:     file format elf32-littlenios2
dual_otu2_multiprotocol_otu2_mxp.elf
architecture: nios2:r1, flags 0x00000112:
EXEC_P, HAS_SYMS, D_PAGED
start address 0x0200019c

Program Header:
    LOAD off    0x00001000 vaddr 0x00400000 paddr 0x00400000 align 2**12
         filesz 0x00000020 memsz 0x00000020 flags r-x
    LOAD off    0x00001020 vaddr 0x00400020 paddr 0x02000000 align 2**12
         filesz 0x0000019c memsz 0x0000019c flags r-x
    LOAD off    0x0000219c vaddr 0x0200019c paddr 0x0200019c align 2**12
         filesz 0x00070ca4 memsz 0x0007cbd8 flags rwx

Sections:
Idx Name          Size      VMA       LMA       File off  Algn
  0 .entry        00000020  00400000  00400000  00001000  2**5
                  CONTENTS, ALLOC, LOAD, READONLY, CODE
  1 .exceptions   0000019c  00400020  02000000  00001020  2**2
                  CONTENTS, ALLOC, LOAD, READONLY, CODE
  2 .text         00048404  0200019c  0200019c  0000219c  2**2
                  CONTENTS, ALLOC, LOAD, READONLY, CODE
  3 .rodata       00012f34  020485a0  020485a0  0004a5a0  2**2
                  CONTENTS, ALLOC, LOAD, READONLY, DATA
  4 .rwdata       0001596c  0205b4d4  0205b4d4  0005d4d4  2**2
                  CONTENTS, ALLOC, LOAD, DATA, SMALL_DATA
  5 .bss          0000bf34  02070e40  02070e40  00072e40  2**2
                  ALLOC, SMALL_DATA
  6 .constants    00000000  00002000  00002000  00072e40  2**0
                  CONTENTS
  7 .onchip_memory2_0 00000000  004001bc  004001bc  00072e40  2**0
                  CONTENTS
  8 .comment      00000023  00000000  00000000  00072e40  2**0
                  CONTENTS, READONLY
  9 .debug_aranges 00001a08  00000000  00000000  00072e68  2**3
                  CONTENTS, READONLY, DEBUGGING
 10 .debug_info   00052b74  00000000  00000000  00074870  2**0
                  CONTENTS, READONLY, DEBUGGING
 11 .debug_abbrev 00011a57  00000000  00000000  000c73e4  2**0
                  CONTENTS, READONLY, DEBUGGING
 12 .debug_line   00018eb7  00000000  00000000  000d8e3b  2**0
                  CONTENTS, READONLY, DEBUGGING
 13 .debug_frame  0000a690  00000000  00000000  000f1cf4  2**2
                  CONTENTS, READONLY, DEBUGGING
 14 .debug_str    0000e2f8  00000000  00000000  000fc384  2**0
                  CONTENTS, READONLY, DEBUGGING
 15 .debug_loc    00023277  00000000  00000000  0010a67c  2**0
                  CONTENTS, READONLY, DEBUGGING
 16 .debug_alt_sim_info 00000060  00000000  00000000  0012d8f4  2**2
                  CONTENTS, READONLY, DEBUGGING
 17 .debug_ranges 00001ff8  00000000  00000000  0012d958  2**3
                  CONTENTS, READONLY, DEBUGGING
 18 .thread_model 00000003  00000000  00000000  0013c90e  2**0
                  CONTENTS, READONLY
 19 .cpu          00000005  00000000  00000000  0013c911  2**0
                  CONTENTS, READONLY
 20 .qsys         00000001  00000000  00000000  0013c916  2**0
                  CONTENTS, READONLY
 21 .simulation_enabled 00000001  00000000  00000000  0013c917  2**0
                  CONTENTS, READONLY
 22 .stderr_dev   00000004  00000000  00000000  0013c918  2**0
                  CONTENTS, READONLY
 23 .stdin_dev    00000004  00000000  00000000  0013c91c  2**0
                  CONTENTS, READONLY
 24 .stdout_dev   00000004  00000000  00000000  0013c920  2**0
                  CONTENTS, READONLY
 25 .sopc_system_name 00000018  00000000  00000000  0013c924  2**0
                  CONTENTS, READONLY
 26 .sopcinfo     000928ee  00000000  00000000  0013c93c  2**0
                  CONTENTS, READONLY
SYMBOL TABLE:
00400000 l    d  .entry	00000000 .entry
00400020 l    d  .exceptions	00000000 .exceptions
0200019c l    d  .text	00000000 .text
020485a0 l    d  .rodata	00000000 .rodata
0205b4d4 l    d  .rwdata	00000000 .rwdata
02070e40 l    d  .bss	00000000 .bss
00002000 l    d  .constants	00000000 .constants
004001bc l    d  .onchip_memory2_0	00000000 .onchip_memory2_0
00000000 l    d  .comment	00000000 .comment
00000000 l    d  .debug_aranges	00000000 .debug_aranges
00000000 l    d  .debug_info	00000000 .debug_info
00000000 l    d  .debug_abbrev	00000000 .debug_abbrev
00000000 l    d  .debug_line	00000000 .debug_line
00000000 l    d  .debug_frame	00000000 .debug_frame
00000000 l    d  .debug_str	00000000 .debug_str
00000000 l    d  .debug_loc	00000000 .debug_loc
00000000 l    d  .debug_alt_sim_info	00000000 .debug_alt_sim_info
00000000 l    d  .debug_ranges	00000000 .debug_ranges
00000000 l    df *ABS*	00000000 ../bsp//obj/HAL/src/crt0.o
020001e4 l       .text	00000000 alt_after_alt_main
00000000 l    df *ABS*	00000000 alt_exception_entry.o
00400094 l       .exceptions	00000000 alt_exception_unknown
00000000 l    df *ABS*	00000000 alt_irq_handler.c
00000000 l    df *ABS*	00000000 kurs_core.c
020001e8 l     F .text	00000040 get_bit_state
02000228 l     F .text	00000074 set_bit_state
0200029c l     F .text	000000a8 float_compare
02000344 l     F .text	00000060 float_compare_lt
020003a4 l     F .text	00000060 float_compare_gt
02000404 l     F .text	0000006c float_compare_equal
02070e48 l     O .bss	00000004 expected_blck_cnt.4192
00000000 l    df *ABS*	00000000 kurs_helper.c
00000000 l    df *ABS*	00000000 kurs_processor.c
02005ba4 l     F .text	00000040 get_bit_state
02005be4 l     F .text	00000074 set_bit_state
02005da0 l     F .text	00000058 listen_eop
02005df8 l     F .text	0000008c listen_sop
02005e84 l     F .text	00000114 listen_payload
00000000 l    df *ABS*	00000000 kurs_remote_update.c
02070e50 l     O .bss	00000001 bFwUpdateStarted.4036
02070d98 l     O .rwdata	00000001 bVerifyIdent.4035
02070e54 l     O .bss	00000004 dwLastActionTime.4037
02070e58 l     O .bss	00000004 dwLastTimeout.4038
02070e5c l     O .bss	00000004 dwCurFwAddr.4033
02070e60 l     O .bss	00000004 dwCurCopyAddr.4034
00000000 l    df *ABS*	00000000 kurs_user_prefs.c
02006ca8 l     F .text	00000040 get_bit_state
02006ce8 l     F .text	00000074 set_bit_state
00000000 l    df *ABS*	00000000 lld_S29GLxxxP.c
00000000 l    df *ABS*	00000000 cfi_flash.c
020090a8 l     F .text	00000040 get_bit_state
020090e8 l     F .text	00000074 set_bit_state
02064b5c l     O .rwdata	000000dc cfi_0
00000000 l    df *ABS*	00000000 ipg_als.c
02009470 l     F .text	00000040 get_bit_state
020094b0 l     F .text	00000074 set_bit_state
00000000 l    df *ABS*	00000000 ipg_delay.c
00000000 l    df *ABS*	00000000 ipg_ge_mac.c
02009880 l     F .text	00000040 get_bit_state
020098c0 l     F .text	00000074 set_bit_state
02009b94 l     F .text	0000020c map_ge_mac_regs_ol
00000000 l    df *ABS*	00000000 ipg_ge_pcs.c
0200a1f0 l     F .text	00000040 get_bit_state
0200a230 l     F .text	00000074 set_bit_state
00000000 l    df *ABS*	00000000 ipg_gfp.c
0200a70c l     F .text	00000040 get_bit_state
0200a74c l     F .text	00000074 set_bit_state
0200a8e8 l     F .text	00000088 map_gfp_regs_ol
00000000 l    df *ABS*	00000000 ipg_i2c.c
0200a9dc l     F .text	00000040 get_bit_state
0200aa1c l     F .text	00000074 set_bit_state
00000000 l    df *ABS*	00000000 ipg_mcp9808.c
0200abe8 l     F .text	00000040 get_bit_state
0200ac28 l     F .text	00000074 set_bit_state
00000000 l    df *ABS*	00000000 ipg_mdio.c
00000000 l    df *ABS*	00000000 ipg_pca9516.c
0200b194 l     F .text	00000040 get_bit_state
0200b1d4 l     F .text	00000074 set_bit_state
00000000 l    df *ABS*	00000000 ipg_pca9547.c
0200b2b8 l     F .text	00000040 get_bit_state
0200b2f8 l     F .text	00000074 set_bit_state
00000000 l    df *ABS*	00000000 ipg_pfc.c
0200b438 l     F .text	00000040 get_bit_state
0200b478 l     F .text	00000074 set_bit_state
0200b608 l     F .text	000000b8 map_pfc_regs
0200b870 l     F .text	00000078 pfc_timer_isr
0200b9d4 l     F .text	00000244 refresh_pfc_statistics
00000000 l    df *ABS*	00000000 ipg_sfp.c
0200bdd0 l     F .text	00000040 get_bit_state
0200be10 l     F .text	00000074 set_bit_state
0200be84 l     F .text	000000fc double_compare
0200bf80 l     F .text	0000007c double_compare_lt
0200bffc l     F .text	0000007c double_compare_gt
0200c078 l     F .text	0000009c double_compare_equal
0200c114 l     F .text	00000098 rtrim
0200c1ac l     F .text	000000a8 uW_to_dBm
0200c254 l     F .text	000000ac raw_to_dBm
0200c300 l     F .text	00000140 channel_to_freq
0200c440 l     F .text	00000284 freq_to_channel
0200c6c4 l     F .text	000000ac float_compare
0200c770 l     F .text	00000064 float_compare_lt
0200c7d4 l     F .text	00000064 float_compare_gt
0200c838 l     F .text	00000070 float_compare_equal
00000000 l    df *ABS*	00000000 ipg_sfpp.c
0200e4c0 l     F .text	00000040 get_bit_state
0200e500 l     F .text	00000074 set_bit_state
0200e574 l     F .text	000000fc double_compare
0200e670 l     F .text	0000007c double_compare_lt
0200e6ec l     F .text	0000007c double_compare_gt
0200e768 l     F .text	0000009c double_compare_equal
0200e804 l     F .text	00000098 rtrim
0200e89c l     F .text	000000a8 uW_to_dBm
0200e944 l     F .text	000000ac raw_to_dBm
0200e9f0 l     F .text	00000140 channel_to_freq
0200eb30 l     F .text	00000284 freq_to_channel
0200edb4 l     F .text	000000ac float_compare
0200ee60 l     F .text	00000064 float_compare_lt
0200eec4 l     F .text	00000064 float_compare_gt
0200ef28 l     F .text	00000070 float_compare_equal
02070da0 l     O .rwdata	00000004 version
00000000 l    df *ABS*	00000000 ipg_si5326.c
02010ae8 l     F .text	00000040 get_bit_state
02010b28 l     F .text	00000074 set_bit_state
00000000 l    df *ABS*	00000000 ipg_si5338.c
02010e3c l     F .text	00000040 get_bit_state
02010e7c l     F .text	00000074 set_bit_state
02070dac l     O .rwdata	00000001 retry.3250
00000000 l    df *ABS*	00000000 ipg_si5375.c
020115c8 l     F .text	00000040 get_bit_state
02011608 l     F .text	00000074 set_bit_state
00000000 l    df *ABS*	00000000 ipg_uart.c
02011d38 l     F .text	00000040 get_bit_state
02011d78 l     F .text	00000074 set_bit_state
02011e60 l     F .text	00000108 uart_isr
00000000 l    df *ABS*	00000000 ipglb_interface.c
0201233c l     F .text	00000040 get_bit_state
0201237c l     F .text	00000074 set_bit_state
00000000 l    df *ABS*	00000000 ipglb_port.c
020125b4 l     F .text	00000040 get_bit_state
020125f4 l     F .text	00000074 set_bit_state
00000000 l    df *ABS*	00000000 ipglb_prot2_processor.c
02012b28 l     F .text	00000040 get_bit_state
02012b68 l     F .text	00000074 set_bit_state
02012ca8 l     F .text	0000009c listen_length
02012edc l     F .text	00000058 listen_reset
02070e8c l     O .bss	00000004 start_time
02070e90 l     O .bss	00000004 current_time
02012d44 l     F .text	000000b0 listen_func
02012df4 l     F .text	000000e8 listen_cmd
02012f34 l     F .text	00000148 listen_payload
00000000 l    df *ABS*	00000000 ipglb_protocol_2.c
02013284 l     F .text	00000040 get_bit_state
020132c4 l     F .text	00000074 set_bit_state
02013338 l     F .text	000000fc double_compare
02013434 l     F .text	0000007c double_compare_lt
020134b0 l     F .text	0000007c double_compare_gt
0201352c l     F .text	0000009c double_compare_equal
020135c8 l     F .text	00000098 rtrim
02013660 l     F .text	000000a8 uW_to_dBm
02013708 l     F .text	000000ac raw_to_dBm
020137b4 l     F .text	00000140 channel_to_freq
020138f4 l     F .text	00000284 freq_to_channel
02013b78 l     F .text	000000ac float_compare
02013c24 l     F .text	00000064 float_compare_lt
02013c88 l     F .text	00000064 float_compare_gt
02013cec l     F .text	00000070 float_compare_equal
00000000 l    df *ABS*	00000000 ipglb_transceiver.c
02014b18 l     F .text	00000040 get_bit_state
02014b58 l     F .text	00000074 set_bit_state
02014bcc l     F .text	000000fc double_compare
02014cc8 l     F .text	0000007c double_compare_lt
02014d44 l     F .text	0000007c double_compare_gt
02014dc0 l     F .text	0000009c double_compare_equal
02014e5c l     F .text	00000098 rtrim
02014ef4 l     F .text	000000a8 uW_to_dBm
02014f9c l     F .text	000000ac raw_to_dBm
02015048 l     F .text	00000140 channel_to_freq
02015188 l     F .text	00000284 freq_to_channel
0201540c l     F .text	000000ac float_compare
020154b8 l     F .text	00000064 float_compare_lt
0201551c l     F .text	00000064 float_compare_gt
02015580 l     F .text	00000070 float_compare_equal
020165fc l     F .text	0000011c run_transceiver_absent_state
02015d44 l     F .text	00000048 run_transceiver_fail_state
020163f0 l     F .text	0000016c run_transceiver_com_check_state
02015d8c l     F .text	00000074 run_transceiver_depdendent_monitor_state
02015fe0 l     F .text	000001fc run_transceiver_monitor_state
020161dc l     F .text	00000214 run_transceiver_query_state
020168fc l     F .text	00000030 on_transceiver_los_change
02016860 l     F .text	00000030 on_transceiver_state_change
020167c8 l     F .text	00000078 on_transceiver_plug_unplug_event
02016890 l     F .text	0000004c timer_isr
00000000 l    df *ABS*	00000000 odu2_wrapper.c
02016cc0 l     F .text	00000040 get_bit_state
02016d00 l     F .text	00000074 set_bit_state
00000000 l    df *ABS*	00000000 opu4_mapper.c
02016edc l     F .text	00000040 get_bit_state
02016f1c l     F .text	00000074 set_bit_state
00000000 l    df *ABS*	00000000 sls_avalon_i2c_m.c
02070e94 l     O .bss	00000004 TransDelay
02070e98 l     O .bss	00000004 CLOCK_SOURCE
00000000 l    df *ABS*	00000000 sls_open.c
00000000 l    df *ABS*	00000000 sls_read.c
00000000 l    df *ABS*	00000000 sls_write.c
00000000 l    df *ABS*	00000000 stm1416.c
02017e98 l     F .text	00000040 get_bit_state
02017ed8 l     F .text	00000074 set_bit_state
00000000 l    df *ABS*	00000000 ipg_aps.c
02018070 l     F .text	00000040 get_bit_state
020180b0 l     F .text	00000074 set_bit_state
02018634 l     F .text	000000ac aps_set_protect_channel
02018724 l     F .text	000000a8 aps_set_work_channel
00000000 l    df *ABS*	00000000 ipglb_adapter.c
02018e70 l     F .text	00000040 get_bit_state
02018eb0 l     F .text	00000074 set_bit_state
02018f24 l     F .text	000000fc double_compare
02019020 l     F .text	0000007c double_compare_lt
0201909c l     F .text	0000007c double_compare_gt
02019118 l     F .text	0000009c double_compare_equal
020191b4 l     F .text	00000098 rtrim
0201924c l     F .text	000000a8 uW_to_dBm
020192f4 l     F .text	000000ac raw_to_dBm
020193a0 l     F .text	00000140 channel_to_freq
020194e0 l     F .text	00000284 freq_to_channel
02019764 l     F .text	000000ac float_compare
02019810 l     F .text	00000064 float_compare_lt
02019874 l     F .text	00000064 float_compare_gt
020198d8 l     F .text	00000070 float_compare_equal
02019b18 l     F .text	00000418 client_port_mmap
02019f30 l     F .text	00000098 line_port_mmap
00000000 l    df *ABS*	00000000 ipglb_otu2_brick_dual.c
0201feb8 l     F .text	00000040 get_bit_state
0201fef8 l     F .text	00000074 set_bit_state
00000000 l    df *ABS*	00000000 ipglb_otu2_framer.c
02020014 l     F .text	00000040 get_bit_state
02020054 l     F .text	00000074 set_bit_state
00000000 l    df *ABS*	00000000 logger.c
020201c0 l     F .text	00000040 get_bit_state
02020200 l     F .text	00000074 set_bit_state
00000000 l    df *ABS*	00000000 main.c
02020478 l     F .text	00000028 alt_nticks
020204a0 l     F .text	00000040 get_bit_state
020204e0 l     F .text	00000074 set_bit_state
02020554 l     F .text	000000fc double_compare
02020650 l     F .text	0000007c double_compare_lt
020206cc l     F .text	0000007c double_compare_gt
02020748 l     F .text	0000009c double_compare_equal
020207e4 l     F .text	00000098 rtrim
0202087c l     F .text	000000a8 uW_to_dBm
02020924 l     F .text	000000ac raw_to_dBm
020209d0 l     F .text	00000140 channel_to_freq
02020b10 l     F .text	00000284 freq_to_channel
02020d94 l     F .text	000000ac float_compare
02020e40 l     F .text	00000064 float_compare_lt
02020ea4 l     F .text	00000064 float_compare_gt
02020f08 l     F .text	00000070 float_compare_equal
02048ba8 l     O .rodata	00000598 si5338_155_52_out4_166_62
02049140 l     O .rodata	00000598 si_cfg_155MHz_4x155MHz_0_1ppm
020496d8 l     O .rodata	000005a0 si_cfg_167Mhz_167Mhz
02049c78 l     O .rodata	00000100 si5375_155_52_155_52
02049d78 l     O .rodata	00000100 si5375_155_52_166_62
02049e78 l     O .rodata	00000100 si5375_cfg_167MHz_155_52MHz
02049f78 l     O .rodata	00000100 si5375_155_52_125
0204a078 l     O .rodata	00000100 si5375_cfg_155_52MHz_334_66MHz
0204a178 l     O .rodata	00000100 si5375_155_52_106_25
0204a278 l     O .rodata	00000100 si5375_155_52_212_5
02070e9c l     O .bss	00000004 dummy_u32
02070ea0 l     O .bss	00000008 dummy_u64
02070ea8 l     O .bss	00000004 dummy_float
02070db8 l     O .rwdata	00000004 monitor_always_on
02070fe0 l     O .bss	00000018 timer_systick
02070de8 l     O .rwdata	00000004 current_selected_channel.8569
02070dec l     O .rwdata	00000004 current_selected_channel.8588
0206f024 l     O .rwdata	00000020 xi2c_bus.8605
0206f044 l     O .rwdata	00000020 yi2c_bus.8606
0206f064 l     O .rwdata	00000020 ln0_i2c_bus2.8607
0206f084 l     O .rwdata	00000020 ln1_i2c_bus3.8608
0206f0a4 l     O .rwdata	00000020 i2c_bus4.8609
0206f0c4 l     O .rwdata	00000020 rem_xi2c_bus.8610
0206f0e4 l     O .rwdata	00000020 rem_yi2c_bus.8611
0206f104 l     O .rwdata	00000020 rem_ln0_i2c_bus2.8612
0206f124 l     O .rwdata	00000020 rem_ln1_i2c_bus3.8613
0206f144 l     O .rwdata	00000020 rem_i2c_bus4.8614
00000000 l    df *ABS*	00000000 ring_buffer.c
0202d5d8 l     F .text	00000040 get_bit_state
0202d618 l     F .text	00000074 set_bit_state
02071038 l     O .bss	000000f0 _rb
02070f94 l     O .bss	00000004 idx.2210
0202d7e4 l     F .text	00000044 ring_buffer_full
0202d828 l     F .text	00000038 ring_buffer_empty
00000000 l    df *ABS*	00000000 scheduler.c
0202ed34 l     F .text	00000124 s_task_idle
02070fa0 l     O .bss	00000004 ticks_snap.2086
0202ebf0 l     F .text	00000144 s_task_extract_msg
02070fa4 l     O .bss	00000002 s_task_id.2101
0202e788 l     F .text	00000098 s_task_locate
0202e820 l     F .text	00000164 s_task_delete_node
0202e984 l     F .text	00000028 s_task_suspend_node
0202e9ac l     F .text	00000054 s_task_resume_node
0202ea00 l     F .text	000000ac s_task_insert_message
0202eaac l     F .text	000000fc s_task_remove_message
0202eba8 l     F .text	00000048 s_task_locate_tail
02070fa8 l     O .bss	00000004 init_ticks.2224
00000000 l    df *ABS*	00000000 s_ceil.c
00000000 l    df *ABS*	00000000 s_floor.c
00000000 l    df *ABS*	00000000 sf_infinity.c
00000000 l    df *ABS*	00000000 w_log10.c
00000000 l    df *ABS*	00000000 e_log10.c
00000000 l    df *ABS*	00000000 s_fpclassify.c
00000000 l    df *ABS*	00000000 s_lib_ver.c
00000000 l    df *ABS*	00000000 s_matherr.c
00000000 l    df *ABS*	00000000 s_nan.c
00000000 l    df *ABS*	00000000 e_log.c
00000000 l    df *ABS*	00000000 libgcc2.c
00000000 l    df *ABS*	00000000 libgcc2.c
00000000 l    df *ABS*	00000000 libgcc2.c
00000000 l    df *ABS*	00000000 divsf3.c
00000000 l    df *ABS*	00000000 gesf2.c
00000000 l    df *ABS*	00000000 lesf2.c
00000000 l    df *ABS*	00000000 mulsf3.c
00000000 l    df *ABS*	00000000 subsf3.c
00000000 l    df *ABS*	00000000 fixsfsi.c
00000000 l    df *ABS*	00000000 floatsisf.c
00000000 l    df *ABS*	00000000 floatunsisf.c
00000000 l    df *ABS*	00000000 adddf3.c
00000000 l    df *ABS*	00000000 divdf3.c
00000000 l    df *ABS*	00000000 eqdf2.c
00000000 l    df *ABS*	00000000 gedf2.c
00000000 l    df *ABS*	00000000 ledf2.c
00000000 l    df *ABS*	00000000 muldf3.c
00000000 l    df *ABS*	00000000 subdf3.c
00000000 l    df *ABS*	00000000 fixdfsi.c
00000000 l    df *ABS*	00000000 floatsidf.c
00000000 l    df *ABS*	00000000 floatunsidf.c
00000000 l    df *ABS*	00000000 extendsfdf2.c
00000000 l    df *ABS*	00000000 truncdfsf2.c
00000000 l    df *ABS*	00000000 libgcc2.c
00000000 l    df *ABS*	00000000 lib2-divmod.c
02033904 l     F .text	0000006c udivmodsi4
00000000 l    df *ABS*	00000000 libgcc2.c
00000000 l    df *ABS*	00000000 atof.c
00000000 l    df *ABS*	00000000 atol.c
00000000 l    df *ABS*	00000000 calloc.c
00000000 l    df *ABS*	00000000 mallocr.c
00000000 l    df *ABS*	00000000 ctype_.c
0205afaf l     O .rodata	00000180 _ctype_b
00000000 l    df *ABS*	00000000 errno.c
00000000 l    df *ABS*	00000000 impure.c
0206f164 l     O .rwdata	00000424 impure_data
00000000 l    df *ABS*	00000000 malloc.c
00000000 l    df *ABS*	00000000 mallocr.c
00000000 l    df *ABS*	00000000 memcmp.c
00000000 l    df *ABS*	00000000 memcpy.c
00000000 l    df *ABS*	00000000 memset.c
00000000 l    df *ABS*	00000000 printf.c
00000000 l    df *ABS*	00000000 puts.c
00000000 l    df *ABS*	00000000 sbrkr.c
00000000 l    df *ABS*	00000000 sprintf.c
00000000 l    df *ABS*	00000000 strchr.c
00000000 l    df *ABS*	00000000 strcpy.c
00000000 l    df *ABS*	00000000 strlen.c
00000000 l    df *ABS*	00000000 strncmp.c
00000000 l    df *ABS*	00000000 strncpy.c
00000000 l    df *ABS*	00000000 strrchr.c
00000000 l    df *ABS*	00000000 strtod.c
02034cc4 l     F .text	00000064 sulp
0205b15c l     O .rodata	00000014 fpi.2679
0205b170 l     O .rodata	00000028 tinytens
0205b148 l     O .rodata	00000014 fpinan.2715
00000000 l    df *ABS*	00000000 strtol.c
00000000 l    df *ABS*	00000000 vfprintf.c
0205b1d7 l     O .rodata	00000010 zeroes.4240
0205b1e7 l     O .rodata	00000010 blanks.4239
00000000 l    df *ABS*	00000000 vfprintf.c
0205b1f7 l     O .rodata	00000010 zeroes.4255
0203a59c l     F .text	000000bc __sbprintf
0205b207 l     O .rodata	00000010 blanks.4254
00000000 l    df *ABS*	00000000 vsprintf.c
00000000 l    df *ABS*	00000000 wsetup.c
00000000 l    df *ABS*	00000000 dtoa.c
0203a820 l     F .text	00000200 quorem
00000000 l    df *ABS*	00000000 fflush.c
00000000 l    df *ABS*	00000000 findfp.c
0203c3dc l     F .text	00000008 __fp_lock
0203c3e4 l     F .text	00000008 __fp_unlock
0203c3f8 l     F .text	0000019c __sinit.part.1
00000000 l    df *ABS*	00000000 mallocr.c
00000000 l    df *ABS*	00000000 fvwrite.c
00000000 l    df *ABS*	00000000 fwalk.c
00000000 l    df *ABS*	00000000 gdtoa-gethex.c
0203d1d8 l     F .text	00000100 rshift
00000000 l    df *ABS*	00000000 gdtoa-hexnan.c
00000000 l    df *ABS*	00000000 int_errno.c
00000000 l    df *ABS*	00000000 locale.c
0206f9b0 l     O .rwdata	00000020 lc_ctype_charset
0206f990 l     O .rwdata	00000020 lc_message_charset
0206f9d0 l     O .rwdata	00000038 lconv
00000000 l    df *ABS*	00000000 makebuf.c
00000000 l    df *ABS*	00000000 memchr.c
00000000 l    df *ABS*	00000000 memmove.c
00000000 l    df *ABS*	00000000 mprec.c
0205b334 l     O .rodata	0000000c p05.2710
00000000 l    df *ABS*	00000000 mallocr.c
00000000 l    df *ABS*	00000000 stdio.c
00000000 l    df *ABS*	00000000 strcmp.c
00000000 l    df *ABS*	00000000 vfprintf.c
0205b458 l     O .rodata	00000010 zeroes.4184
0205b468 l     O .rodata	00000010 blanks.4183
00000000 l    df *ABS*	00000000 vfprintf.c
02040b40 l     F .text	000000fc __sprint_r.part.0
0205b488 l     O .rodata	00000010 blanks.4199
0205b478 l     O .rodata	00000010 zeroes.4200
02041f48 l     F .text	000000bc __sbprintf
00000000 l    df *ABS*	00000000 writer.c
00000000 l    df *ABS*	00000000 closer.c
00000000 l    df *ABS*	00000000 fclose.c
00000000 l    df *ABS*	00000000 fputwc.c
00000000 l    df *ABS*	00000000 fstatr.c
00000000 l    df *ABS*	00000000 isattyr.c
00000000 l    df *ABS*	00000000 lseekr.c
00000000 l    df *ABS*	00000000 readr.c
00000000 l    df *ABS*	00000000 wbuf.c
00000000 l    df *ABS*	00000000 wcrtomb.c
00000000 l    df *ABS*	00000000 wctomb_r.c
00000000 l    df *ABS*	00000000 libgcc2.c
00000000 l    df *ABS*	00000000 libgcc2.c
00000000 l    df *ABS*	00000000 eqsf2.c
00000000 l    df *ABS*	00000000 alt_alarm_start.c
00000000 l    df *ABS*	00000000 alt_close.c
0204353c l     F .text	00000050 alt_get_errno
00000000 l    df *ABS*	00000000 alt_dcache_flush.c
00000000 l    df *ABS*	00000000 alt_dcache_flush_all.c
00000000 l    df *ABS*	00000000 alt_dev.c
02043714 l     F .text	0000002c alt_dev_null_write
00000000 l    df *ABS*	00000000 alt_errno.c
00000000 l    df *ABS*	00000000 alt_flash_dev.c
00000000 l    df *ABS*	00000000 alt_fstat.c
020437f8 l     F .text	00000050 alt_get_errno
00000000 l    df *ABS*	00000000 alt_icache_flush_all.c
00000000 l    df *ABS*	00000000 alt_iic.c
00000000 l    df *ABS*	00000000 alt_iic_isr_register.c
00000000 l    df *ABS*	00000000 alt_ioctl.c
02043bf8 l     F .text	00000050 alt_get_errno
00000000 l    df *ABS*	00000000 alt_irq_vars.c
00000000 l    df *ABS*	00000000 alt_isatty.c
02043d58 l     F .text	00000050 alt_get_errno
00000000 l    df *ABS*	00000000 alt_load.c
02043e4c l     F .text	00000064 alt_load_section
00000000 l    df *ABS*	00000000 alt_lseek.c
02043f30 l     F .text	00000050 alt_get_errno
00000000 l    df *ABS*	00000000 alt_main.c
00000000 l    df *ABS*	00000000 alt_malloc_lock.c
00000000 l    df *ABS*	00000000 alt_read.c
020440e0 l     F .text	00000050 alt_get_errno
00000000 l    df *ABS*	00000000 alt_release_fd.c
00000000 l    df *ABS*	00000000 alt_sbrk.c
02070e34 l     O .rwdata	00000004 heap_end
00000000 l    df *ABS*	00000000 alt_tick.c
00000000 l    df *ABS*	00000000 alt_usleep.c
00000000 l    df *ABS*	00000000 alt_write.c
02044508 l     F .text	00000050 alt_get_errno
00000000 l    df *ABS*	00000000 alt_sys_init.c
02044650 l     F .text	00000038 alt_dev_reg
0206fbb0 l     O .rwdata	00001060 jtag_uart_0
02070c10 l     O .rwdata	000000c4 debug_uart
02070cd4 l     O .rwdata	000000c4 uart_0
00000000 l    df *ABS*	00000000 altera_avalon_cfi_flash.c
02044758 l     F .text	00000038 alt_flash_device_register
00000000 l    df *ABS*	00000000 altera_avalon_cfi_flash_table.c
02045594 l     F .text	00000080 alt_read_16bit_query_entry
00000000 l    df *ABS*	00000000 altera_avalon_jtag_uart_fd.c
00000000 l    df *ABS*	00000000 altera_avalon_jtag_uart_init.c
02046660 l     F .text	00000204 altera_avalon_jtag_uart_irq
02046864 l     F .text	000000a8 altera_avalon_jtag_uart_timeout
00000000 l    df *ABS*	00000000 altera_avalon_jtag_uart_ioctl.c
00000000 l    df *ABS*	00000000 altera_avalon_jtag_uart_read.c
00000000 l    df *ABS*	00000000 altera_avalon_jtag_uart_write.c
00000000 l    df *ABS*	00000000 altera_avalon_timer_sc.c
02046e84 l     F .text	00000074 alt_avalon_timer_sc_irq
00000000 l    df *ABS*	00000000 altera_avalon_uart_fd.c
00000000 l    df *ABS*	00000000 altera_avalon_uart_init.c
02047138 l     F .text	00000098 altera_avalon_uart_irq
020471d0 l     F .text	000000e0 altera_avalon_uart_rxirq
020472b0 l     F .text	00000144 altera_avalon_uart_txirq
00000000 l    df *ABS*	00000000 altera_avalon_uart_read.c
02047448 l     F .text	00000050 alt_get_errno
00000000 l    df *ABS*	00000000 altera_avalon_uart_write.c
02047674 l     F .text	00000050 alt_get_errno
00000000 l    df *ABS*	00000000 alt_busy_sleep.c
00000000 l    df *ABS*	00000000 alt_dev_llist_insert.c
020479c8 l     F .text	00000050 alt_get_errno
00000000 l    df *ABS*	00000000 alt_fd_lock.c
00000000 l    df *ABS*	00000000 alt_fd_unlock.c
00000000 l    df *ABS*	00000000 alt_find_dev.c
00000000 l    df *ABS*	00000000 alt_icache_flush.c
00000000 l    df *ABS*	00000000 altera_nios2_qsys_irq.c
00000000 l    df *ABS*	00000000 altera_avalon_cfi_flash_amd.c
02048080 l     F .text	000000cc alt_write_word_amd
02047f64 l     F .text	0000011c alt_wait_for_command_to_complete_amd
00000000 l    df *ABS*	00000000 altera_avalon_cfi_flash_intel.c
02048354 l     F .text	00000178 alt_unlock_block_intel
020484cc l     F .text	000000d4 alt_write_word_intel
020715dc g     O .bss	00003e9c card
02070dc0 g     O .rwdata	00000004 max_tx_power
02070eea g     O .bss	00000001 flag_300ms_event
0203f07c g     F .text	00000074 _mprec_log10
02070f1c g     O .bss	00000004 pt_cl_8_in_cat
020291c0 g     F .text	0000023c set_port_als_mode
0203f168 g     F .text	0000008c __any_on
020423f0 g     F .text	00000054 _isatty_r
0205b340 g     O .rodata	00000028 __mprec_tinytens
0200a188 g     F .text	00000034 clear_ge_counters
020022fc g     F .text	00000100 HandleKursExtendedEnableSetParams
02011c10 g     F .text	0000007c handle_user_si5375_write
02044054 g     F .text	0000004c alt_main
02034988 g     F .text	00000090 strcpy
020077f8 g     F .text	00000050 lld_AutoselectEntryCmd
02007390 g     F .text	00000024 lld_InitCmd
02034650 g     F .text	000000a8 _puts_r
02045060 g     F .text	00000040 alt_read_query_entry_32bit
0207cc74 g     O .bss	00000100 alt_irq
02009784 g     F .text	00000070 Delay_s
02047abc g     F .text	000000b4 alt_fd_lock
02042444 g     F .text	0000005c _lseek_r
0200f114 g     F .text	00000080 sfpp_write_data
02044820 g     F .text	000002a8 alt_flash_cfi_write
02008b58 g     F .text	00000038 lld_PpbLockBitExitCmd
02070de0 g     O .rwdata	00000008 PORT_OPERATION_TEXT
0205b4d4 g       *ABS*	00000000 __flash_rwdata_start
020131fc g     F .text	00000028 ipglb_prot2_get_packet
02066bcc g     O .rwdata	00000028 table2_ln2_sfp_pres
02008968 g     F .text	00000050 lld_PpbEntryCmd
02067414 g     O .rwdata	00000028 table2_cl7_sdh_alrm_add
02029ddc g     F .text	00000364 switch_to_otu1
020321c4 g     F .text	00000084 .hidden __eqdf2
02070f64 g     O .bss	00000001 new_lng_file
0200a80c g     F .text	0000005c init_gfp
02007574 g     F .text	0000006c lld_WriteToBufferCmd
0200d200 g     F .text	000000a0 handle_user_phy_sfp_read
02043c48 g     F .text	00000110 ioctl
02064c38 g     O .rwdata	00000010 silab_output_addresses
02008b2c g     F .text	0000002c lld_PpbLockBitReadCmd
0200c978 g     F .text	00000090 enable_sfp_sgmii
02075478 g     O .bss	00000010 dvt_uart
0206734c g     O .rwdata	00000028 table2_cl7_pin_add
0201fbe8 g     F .text	00000124 callback_on_transceiver_plug_change
02013224 g     F .text	00000028 ipglb_prot2_clear_reply_ready
0207cd74 g       *ABS*	00000000 __alt_heap_start
02008720 g     F .text	00000038 lld_LockRegExitCmd
0201880c g     F .text	00000044 aps_get_revert_mode
0202dd5c g     F .text	0000003c ring_buffer_get_count
0200a970 g     F .text	00000038 disable_gfp_err_flag
02067914 g     O .rwdata	00000028 table2_cl12_sfpp_pres
02034614 g     F .text	0000003c printf
02067d9c g     O .rwdata	00000028 table2_cl16_temp_add
02070ee9 g     O .bss	00000001 flag_125ms_event
0200f194 g     F .text	00000080 sfpp_write_block
0203a6a8 g     F .text	00000024 vsprintf
020245d4 g     F .text	00000020 select_channel_on_bus_x
0202e1d0 g     F .text	0000005c s_task_delete
02042650 g     F .text	0000009c _wcrtomb_r
02010fa4 g     F .text	000000a8 ipg_si5338_rd
02070e4c g     O .bss	00000004 ems_update_period_min
02008254 g     F .text	00000120 lld_WriteBufferProgramOp
0203f834 g     F .text	0000005c __sseek
0203c72c g     F .text	00000010 __sinit
020424fc g     F .text	00000138 __swbuf_r
02047b70 g     F .text	00000040 alt_fd_unlock
0200f388 g     F .text	000000c8 get_sfpp_vn
0202a4a4 g     F .text	00000324 switch_to_fc1
02075488 g     O .bss	00000018 dvt_handler_alarm
0203dd78 g     F .text	0000007c _setlocale_r
02009688 g     F .text	00000080 als_enable
02000470 g     F .text	00000030 profile_set_default
0203c594 g     F .text	00000068 __sfmoreglue
02066e24 g     O .rwdata	00000028 table2_cl2_sfpp_pres
02007ca8 g     F .text	000000fc lld_Poll
020440c0 g     F .text	00000020 __malloc_unlock
02066b7c g     O .rwdata	00000028 table2_ln2_pout_add
02067c5c g     O .rwdata	00000028 table2_cl15_sfpp_pres
02070eeb g     O .bss	00000001 flag_500ms_event
02070f20 g     O .bss	00000004 pt_cl_9_in_cat
02017d2c g     F .text	000000b4 sls_read_16_bit
020202d0 g     F .text	000000c8 logger_log
02070eb8 g     O .bss	00000004 dummy_aps_set
02065ea0 g     O .rwdata	00000ad4 section_1
02012198 g     F .text	00000034 ipg_uart_enable_ITRDY
02034d28 g     F .text	000015ec _strtod_r
0202fec0 g     F .text	00000450 .hidden __divsf3
020754a0 g     O .bss	00000021 nios_fw_rev
02033a44 g     F .text	0000000c _atol_r
0202562c g     F .text	00000678 run_boot_sequence
0202e4c0 g     F .text	000000e4 s_task_send_msg
020754c4 g     O .bss	00000018 alarm_125ms
02066e9c g     O .rwdata	00000028 table2_cl2_sdh_alrm_add
020675cc g     O .rwdata	00000028 table2_cl9_sfpp_pres
0201324c g     F .text	00000038 ipglb_prot2_cleanup
0203e0f8 g     F .text	0000015c memmove
02010790 g     F .text	000001c4 get_sfpp_capabilities
02022aa0 g     F .text	00000040 IPGLB_WriteLngFileCallback
0200518c g     F .text	00000210 StrToFloat
020754dc g     O .bss	00000010 rem_yi2c_bus
02016a44  w    F .text	00000094 set_transceiver_txdisable
0203c714 g     F .text	00000018 _cleanup
02018a90 g     F .text	0000005c aps_enable
02070ed0 g     O .bss	00000004 systicks
02066a14 g     O .rwdata	00000028 table2_ln1_pout_add
0203e254 g     F .text	000000a8 _Balloc
02066d0c g     O .rwdata	00000028 table2_cl1_sfpp_pres
02021ce0 g     F .text	00000074 destroy_pfc_module
02008cd8 g     F .text	00000048 lld_PpbLockBitReadOp
02005f98  w    F .text	00000028 kurs_rx_ok_callback
02066dac g     O .rwdata	00000028 table2_cl1_eth_alrm_add
02030da0 g     F .text	00000078 .hidden __fixsfsi
02066f3c g     O .rwdata	00000028 table2_cl3_sfpp_pres
0200bd10 g     F .text	00000050 get_pfc_bbe
02006d5c g     F .text	00000028 get_preferences_list_count
02032248 g     F .text	000000e0 .hidden __gtdf2
02033a38 g     F .text	0000000c atol
02070ec8 g     O .bss	00000004 ticks_per_300ms
02067b94 g     O .rwdata	00000028 table2_cl14_otu_alrm_add
02033b30 g     F .text	00000010 __errno
02018124 g     F .text	00000078 map_aps_regs
020754ec g     O .bss	00000021 pt_cl_5_in_info
020060b0 g     F .text	00000028 kurs_processor_get_context
020248b4 g     F .text	00000d78 build_i2c_tree
02024614 g     F .text	00000020 select_channel_on_bus_ln0
0207550d g     O .bss	00000021 pt_cl_13_in_info
020083e8 g     F .text	0000006c lld_SectorEraseOp
020451f8 g     F .text	00000050 alt_write_flash_command_32bit_device_16bit_mode
0200a868 g     F .text	00000080 map_gfp_regs
00400000 g     F .entry	0000001c __reset
0202baac g     F .text	00000068 kurs_send_packet
020672fc g     O .rwdata	00000028 table2_cl6_sdh_alrm_add
0200b824  w    F .text	0000004c reset_pfc_hw_counters
02010dc4 g     F .text	00000048 handle_user_si5326_read
0200d664 g     F .text	00000148 get_sfp_temperature
02066d34 g     O .rwdata	00000028 table2_cl1_temp_add
0200d148 g     F .text	000000b8 handle_user_phy_sfp_write
0202ee58 g     F .text	000001e0 ceil
02000000 g       *ABS*	00000000 __flash_exceptions_start
02067004 g     O .rwdata	00000028 table2_cl4_pin_add
020005f0 g     F .text	000000c4 HandleKursEnableSetParams
02070e7c g     O .bss	00000008 reset_bit
02042398 g     F .text	00000058 _fstat_r
020006b4 g     F .text	000001dc HandleKursRdProfile
02044d10 g     F .text	000002d4 alt_flash_program_block
02024424 g     F .text	00000170 handle_user_i2c_config
02070fb8 g     O .bss	00000004 errno
0202f038 g     F .text	000001f4 floor
02007698 g     F .text	0000002c lld_CfiExitCmd
0202d68c g     F .text	00000158 ring_buffer_init
0203f7b0 g     F .text	00000008 __seofread
02024108 g     F .text	0000031c handle_i2c_rd
0207552e g     O .bss	00000021 pt_cl_16_in_info
02007848 g     F .text	0000002c lld_AutoselectExitCmd
0203fb08 g     F .text	00001038 ___svfiprintf_internal_r
0206752c g     O .rwdata	00000028 table2_cl8_sdh_alrm_add
0206f008 g     O .rwdata	00000010 ALS_CONTROL_TEXT
02075550 g     O .bss	00000010 yi2c_bus
02075560 g     O .bss	00000021 pt_cl_11_in_info
020670f4 g     O .rwdata	00000028 table2_cl4_eth_alrm_add
020671bc g     O .rwdata	00000028 table2_cl5_otu_alrm_add
020095c8 g     F .text	00000028 get_als_index
02070fd0 g     O .bss	00000004 alt_argv
020144dc g     F .text	0000017c handle_i2c_func
0200f5e0 g     F .text	000000d8 get_sfpp_rn
02078d98 g       *ABS*	00000000 _gp
02067af4 g     O .rwdata	00000028 table2_cl14_pin_add
020444d8 g     F .text	00000030 usleep
02010454 g     F .text	0000033c get_sfpp_tuning_info
02070d9c g     O .rwdata	00000004 version
020308a4 g     F .text	000004fc .hidden __subsf3
02070dc8 g     O .rwdata	00000004 s32_min_max_40n
02070e74 g     O .bss	00000004 g_suspend_sector
02070f9a g     O .bss	00000001 cpu_usage_p
02067c34 g     O .rwdata	00000028 table2_cl15_pout_add
020075e0 g     F .text	00000038 lld_ProgramBufferToFlashCmd
03000000 g       *ABS*	00000000 __alt_mem_flash_tristate_controller_0
02075584 g     O .bss	00000010 rem_ln1_i2c_bus3
02067194 g     O .rwdata	00000028 table2_cl5_temp_add
02070e6c g     O .bss	00000004 FLSTATEOP
02023c58 g     F .text	000000f4 handle_mem_rd
02070ef1 g     O .bss	00000001 remote_override
02070f34 g     O .bss	00000004 pt_cl_14_in_cat
02012700 g     F .text	0000009c reset_port_fec_statistics
02017de0 g     F .text	000000b8 sls_write
02019ab0 g     F .text	00000068 custom_port_mmap
02070da4 g     O .rwdata	00000004 clk_speed_registers
02070f28 g     O .bss	00000004 pt_cl_11_in_cat
02015e00 g     F .text	00000050 is_in_monitor_state
02011c8c g     F .text	00000074 handle_user_si5375_read
02070f00 g     O .bss	00000004 pt_cl_1_in_cat
02009988 g     F .text	0000020c map_ge_mac_regs
02008374 g     F .text	00000074 lld_ProgramOp
0202a7c8 g     F .text	00000324 switch_to_fc2
0206fa30 g     O .rwdata	00000180 alt_fd_list
020679dc g     O .rwdata	00000028 table2_cl13_pin_add
020060d8 g     F .text	00000134 WriteToProgCopy
020091cc g     F .text	0000009c cfi_flash_write
0200b76c g     F .text	00000028 get_pfc_timer_state
02016ad8  w    F .text	00000048 get_if_transceiver_txdisable
02075594 g     O .bss	00000021 pt_cl_15_in_info
02007480 g     F .text	00000080 lld_ChipEraseCmd
02047bb0 g     F .text	00000090 alt_find_dev
0203438c g     F .text	00000138 memcpy
0203db0c g     F .text	0000026c __hexnan
02008758 g     F .text	00000050 lld_PasswordProtectionEntryCmd
02022b0c g     F .text	0000002c isr_100ms
0203c3ec g     F .text	0000000c _cleanup_r
02002050 g     F .text	000002ac HandleKursExtendedRdDeviceClass
020182b8 g     F .text	000002ac aps_set_mode
02033484 g     F .text	000000d0 .hidden __floatsidf
02007500 g     F .text	00000074 lld_ProgramCmd
02032328 g     F .text	000000e0 .hidden __ltdf2
02004f14 g     F .text	00000144 Str2HexToU8
02008894 g     F .text	0000009c lld_PasswordProtectionUnlockCmd
02008be0 g     F .text	00000044 lld_DybSetCmd
02028f7c g     F .text	0000002c reset_nios
02028f1c g     F .text	00000060 arm_handler
0206702c g     O .rwdata	00000028 table2_cl4_pout_add
02070f58 g     O .bss	00000004 counter_ores_arm
02008ff0 g     F .text	000000b8 lld_LockRegBitsProgramOp
020126e0  w    F .text	00000020 reset_port_statistics
02070f48 g     O .bss	00000002 request_to_arm
0200422c g     F .text	000007d4 sprintf_float
020346f8 g     F .text	00000014 puts
020245b4 g     F .text	00000020 unreset_i2c_mux
020073b4 g     F .text	0000003c lld_ResetCmd
020676bc g     O .rwdata	00000028 table2_cl10_pout_add
02009934 g     F .text	00000054 create_gemac_registers
02006ff0 g     F .text	00000128 commit_user_settings
02070eb4 g     O .bss	00000004 ln_desired_rx_freq
0202f5a0 g     F .text	00000074 __fpclassifyd
0203efd8 g     F .text	000000a4 __ratio
020181fc g     F .text	0000009c aps_init
02041f24 g     F .text	00000024 __vfiprintf_internal
020755b5 g     O .bss	00000021 pt_cl_3_in_info
02017994 g     F .text	0000020c sls_avalon_i2c_read_16_bit
02046a60 g     F .text	0000020c altera_avalon_jtag_uart_read
02033b40 g     F .text	00000014 malloc
0206743c g     O .rwdata	00000028 table2_cl7_eth_alrm_add
020345e8 g     F .text	0000002c _printf_r
02067dec g     O .rwdata	00000028 table2_cl16_sdh_alrm_add
0201c034 g     F .text	000000f4 update_alarms
00400000 g       *ABS*	00000000 __alt_mem_onchip_memory2_0
0202bb14 g     F .text	0000005c ipglb_prot2_send_packet
02033a20 g     F .text	00000008 .hidden __udivsi3
02043da8 g     F .text	000000a4 isatty
02017158 g     F .text	0000013c sls_avalon_i2c_ioctl
0206ef70 g     O .rwdata	00000050 client_to_silab
020755d8 g     O .bss	00000040 mcp9808
02005a08 g     F .text	000000ac get_crc16_ascii
020147cc g     F .text	00000090 handle_ping_func
0200c8a8 g     F .text	00000020 get_sfp_driver_version
0205b390 g     O .rodata	000000c8 __mprec_tens
02019fc8 g     F .text	0000049c custom_init_transceiver_data
02070db0 g     O .rwdata	00000008 alt_sls_device_llist
0206789c g     O .rwdata	00000028 table2_cl11_eth_alrm_add
02070e84 g     O .bss	00000008 wp_bit
02017420 g     F .text	0000049c sls_avalon_i2c_read
02067824 g     O .rwdata	00000028 table2_cl11_temp_add
0203ddf4 g     F .text	0000000c __locale_charset
02070f68 g     O .bss	00000004 arm_processor
020186e0 g     F .text	00000044 aps_get_protect_channel
0206757c g     O .rwdata	00000028 table2_cl9_pin_add
020303c8 g     F .text	000000b8 .hidden __lesf2
0200ab8c g     F .text	0000005c select_i2c_channel_on_bus
02070ef2 g     O .bss	00000001 link_partner_address
0202fd40 g     F .text	00000074 .hidden __fixunsdfsi
0200ca08 g     F .text	000000c0 enable_sfp_ge
02006f4c g     F .text	000000a4 array_to_list
02047c40 g     F .text	0000008c alt_icache_flush
0201b8c8 g     F .text	000004ec update_port_ethernet_stats
0206739c g     O .rwdata	00000028 table2_cl7_sfpp_pres
02070fb4 g     O .bss	00000004 __malloc_top_pad
02067504 g     O .rwdata	00000028 table2_cl8_otu_alrm_add
0200f304 g     F .text	00000084 handle_user_sfpp_write
02012270 g     F .text	00000044 send_reply
02017c6c g     F .text	000000c0 sls_read
0200a498 g     F .text	000000a8 init_ge_pcs
02070e08 g     O .rwdata	00000004 __mb_cur_max
0203de24 g     F .text	0000000c _localeconv_r
02004e50 g     F .text	000000c4 WordToHexStr
02075618 g     O .bss	00000010 rem_ln0_i2c_bus2
0203e660 g     F .text	0000003c __i2b
0203cb90 g     F .text	000004c0 __sfvwrite_r
020037b4 g     F .text	00000070 profile_userget_value
02011dec g     F .text	00000074 init_uart
02022e34 g     F .text	000000ac disable_all_line_transceivers_tx
020077c0 g     F .text	00000038 lld_UnlockBypassResetCmd
02070ef4 g     O .bss	00000001 reboot_nios
0203470c g     F .text	00000054 _sbrk_r
0204814c g     F .text	00000080 alt_program_intel
00002000 g       *ABS*	00000000 __alt_mem_constants
0202c734 g     F .text	00000348 task_55
0201f1e0 g     F .text	00000474 read_if_port_rate
0200b248 g     F .text	00000034 unselect_all_pca9516_channels
020247c4 g     F .text	000000f0 select_channel_on_rem_bus4
02066c44 g     O .rwdata	00000028 table2_ln2_odu_alrm_add
02028fa8 g     F .text	00000064 jump_to_boot_copier
02067e14 g     O .rwdata	00000028 table2_cl16_eth_alrm_add
0201c340 g     F .text	0000037c update_card_alarm2
0200b57c g     F .text	00000034 deinit_pfc
0201fd0c g     F .text	000001ac reset_if_kurs_power_threshold
02012ae8  w    F .text	00000020 update_port_fcx_stats
020424a0 g     F .text	0000005c _read_r
0202f3d0 g     F .text	000001d0 __ieee754_log10
0200cf78 g     F .text	000000c8 get_sfp_pn
0200bcd8 g     F .text	00000038 get_pfc_uas
020089b8 g     F .text	00000044 lld_PpbProgramCmd
02075628 g     O .bss	00000018 heartbeat_alarm
020200c8 g     F .text	000000f8 map_otu2_framer_regs
0204365c g     F .text	00000074 alt_dcache_flush
02018b90 g     F .text	000000b8 switch_working_line
02070ec0 g     O .bss	00000004 ticks_per_100ms
02070e20 g     O .rwdata	00000004 alt_max_fd
02044fe4 g     F .text	0000003c alt_read_query_entry_8bit
02016bc4 g     F .text	00000060 set_if_transceiver_rx_freq
02066974 g     O .rwdata	00000028 table2_alarm1_add
02067bbc g     O .rwdata	00000028 table2_cl14_sdh_alrm_add
020420b4 g     F .text	000000f0 _fclose_r
0206711c g     O .rwdata	00000028 table2_cl5_pin_add
020481cc g     F .text	00000188 alt_erase_block_intel
0203c3ac g     F .text	00000030 fflush
020103d4 g     F .text	00000080 get_sfpp_diagnostics
02071150 g     O .bss	00000010 my_list
02070fb0 g     O .bss	00000004 __malloc_max_sbrked_mem
0200142c g     F .text	0000045c HandleKursSetColorDegradeAndFailure
02023a6c g     F .text	00000064 inituart
02075640 g     O .bss	00001008 _logger
0200771c g     F .text	00000050 lld_UnlockBypassEntryCmd
020335f8 g     F .text	00000110 .hidden __extendsfdf2
02067374 g     O .rwdata	00000028 table2_cl7_pout_add
02070f6c g     O .bss	00000004 temp
02008c68 g     F .text	00000038 lld_DybReadCmd
0200b3d0 g     F .text	00000068 select_pca9547_channel
020111fc g     F .text	00000038 ipg_si5338_hardreset
02066b2c g     O .rwdata	00000028 table2_ln1_postfecber_add
0203105c g     F .text	0000089c .hidden __adddf3
02043388 g     F .text	00000074 .hidden __nesf2
02076648 g     O .bss	000021d8 si5338
02070dcc g     O .rwdata	00000004 s32_min_max_99
02066cbc g     O .rwdata	00000028 table2_cl1_pin_add
02070f0c g     O .bss	00000004 pt_cl_4_in_cat
0202900c g     F .text	00000090 load_new_image_if_valid
02067acc g     O .rwdata	00000028 table2_cl13_eth_alrm_add
0203ed80 g     F .text	0000011c __b2d
02008168 g     F .text	0000005c lld_SecSiSectorExitCmd
020130a4  w    F .text	00000024 ipglb_prot2_pkt_ok_callback
02066dfc g     O .rwdata	00000028 table2_cl2_pout_add
02006488 g     F .text	000000b4 MakeAnswerHEXCRC
02022ee0 g     F .text	000000a8 disable_all_transceivers_tx
02008aa4 g     F .text	00000050 lld_PpbLockBitEntryCmd
02012480 g     F .text	00000114 update_if_dynamic_data
02042df8 g     F .text	00000590 .hidden __umoddi3
0206766c g     O .rwdata	00000028 table2_cl9_eth_alrm_add
02043f80 g     F .text	000000d4 lseek
02067734 g     O .rwdata	00000028 table2_cl10_otu_alrm_add
0206f018 g     O .rwdata	0000000c SERVICE_STATE_TEXT
02070df0 g     O .rwdata	00000004 __fdlib_version
02078820 g     O .bss	00000010 rem_xi2c_bus
02070f2c g     O .bss	00000004 pt_cl_12_in_cat
02006580 g     F .text	0000056c HandleKursSafeReprogramming
02015f90 g     F .text	00000050 is_in_fail_state
02067d74 g     O .rwdata	00000028 table2_cl16_sfpp_pres
02070f70 g     O .bss	00000002 task_100_hndl
02070df8 g     O .rwdata	00000004 _global_impure_ptr
02070f40 g     O .bss	00000004 pt_ln_1_in_cat
020178bc g     F .text	0000008c checKTip
0203f1f4 g     F .text	00000568 _realloc_r
02008c24 g     F .text	00000044 lld_DybClrCmd
02070ee6 g     O .bss	00000001 flag_10ms_event
0207cd74 g       *ABS*	00000000 __bss_end
02043b08 g     F .text	000000f0 alt_iic_isr_register
02067874 g     O .rwdata	00000028 table2_cl11_sdh_alrm_add
02078830 g     O .bss	00000021 pt_cl_8_in_info
020443d4 g     F .text	00000104 alt_tick
02070ee0 g     O .bss	00000004 system_uptime_s
020669c4 g     O .rwdata	00000028 table2_tcase_add
0205b228 g     O .rodata	00000100 __hexdig
0200f214 g     F .text	00000074 sfpp_select_page
02042838 g     F .text	000005c0 .hidden __udivdi3
02015870 g     F .text	00000058 reset_transceiver_temperature_thresholds
0206748c g     O .rwdata	00000028 table2_cl8_pout_add
020421b8 g     F .text	00000184 _fputwc_r
0205b368 g     O .rodata	00000028 __mprec_bigtens
0203e444 g     F .text	00000104 __s2b
020023fc g     F .text	00000340 HandleKursExtendedConfigRdWr
0200cc70 g     F .text	000000a0 sfp_write_word
02070ef0 g     O .bss	00000001 cl_ppm_id
02067c84 g     O .rwdata	00000028 table2_cl15_temp_add
02033554 g     F .text	000000a4 .hidden __floatunsidf
02070f9c g     O .bss	00000004 get_system_ticks
0203eb28 g     F .text	00000060 __mcmp
02047090 g     F .text	000000a8 altera_avalon_uart_init
0206efc0 g     O .rwdata	00000048 ppm_enabled
0200bc98 g     F .text	00000040 get_pfc_sesr
020036c8 g     F .text	000000ac get_block_color
02070ee5 g     O .bss	00000001 flag_5ms_event
0203c74c g     F .text	00000018 __fp_lock_all
02043abc g     F .text	0000004c alt_ic_irq_enabled
0200bc58 g     F .text	00000040 get_pfc_esr
020076c4 g     F .text	00000058 lld_ReadCfiWord
02021d54 g     F .text	00000088 task_ppm_adjustment
0206d110 g     O .rwdata	00001e60 section_8
02066c94 g     O .rwdata	00000028 table2_ln2_postfecber_add
0204433c g     F .text	00000098 alt_alarm_stop
02003570 g     F .text	00000038 ColorDynamicParameters
02036674 g     F .text	00000024 strtol
020677fc g     O .rwdata	00000028 table2_cl11_sfpp_pres
02070fc8 g     O .bss	00000004 alt_irq_active
02071560 g     O .bss	00000048 odux_alarms
020131d4 g     F .text	00000028 ipglb_prot2_get_reply_ready
02008930 g     F .text	00000038 lld_PasswordProtectionExitCmd
02070dbc g     O .rwdata	00000004 min_tx_power
02005c58 g     F .text	00000090 kurs_processor_init
020113f4 g     F .text	000000d4 ipg_si5338_locked
0206793c g     O .rwdata	00000028 table2_cl12_temp_add
02001ad4 g     F .text	00000238 HandleKursWriteLangPackCommand
02011234 g     F .text	00000118 ipg_si5338_config
02007c3c g     F .text	0000006c lld_ReadConfigRegCmd
004000ec g     F .exceptions	000000d0 alt_irq_handler
0206fa08 g     O .rwdata	00000028 alt_dev_null
02070f50 g     O .bss	00000004 flagTest2
02078854 g     O .bss	00000010 i2c_bus4
02016b20  w    F .text	00000020 callback_on_transceiver_txdisable_set
02067b44 g     O .rwdata	00000028 table2_cl14_sfpp_pres
020454f8 g     F .text	0000009c alt_set_flash_algorithm_func
02010d74 g     F .text	00000050 handle_user_si5326_write
0202dfc8 g     F .text	0000017c s_task_create
020679b4 g     O .rwdata	00000028 table2_cl12_eth_alrm_add
02006c08 g     F .text	000000a0 ValidateFlashImage
020715a8 g     O .bss	00000010 odtug2
020114c8 g     F .text	00000038 ipg_si5338_clr_pll_locked_bit
02016c24 g     F .text	00000078 boot_transceiver
02016c9c g     F .text	00000024 read_if_transceiver_freq
02034c5c g     F .text	00000068 strrchr
02078864 g     O .bss	00000018 alarm_10ms
020436d0 g     F .text	00000044 alt_dcache_flush_all
0203e548 g     F .text	00000068 __hi0bits
020239c4 g     F .text	00000060 set_build_number
020087a8 g     F .text	00000054 lld_PasswordProtectionProgramCmd
020293fc g     F .text	0000003c report_local_los_to_fe
02007f84 g     F .text	0000007c lld_StatusClear
0200d324 g     F .text	000000e4 sfp_com_check
020333fc g     F .text	00000088 .hidden __fixdfsi
02067324 g     O .rwdata	00000028 table2_cl6_eth_alrm_add
02033a50 g     F .text	0000001c calloc
0200539c g     F .text	00000400 sprintf_u32
0206cbb8 g     O .rwdata	00000558 section_5
02023b30 g     F .text	00000128 handle_mem_wr
02067a2c g     O .rwdata	00000028 table2_cl13_sfpp_pres
020671e4 g     O .rwdata	00000028 table2_cl5_sdh_alrm_add
02022d90 g     F .text	000000a4 enable_all_line_transceivers_tx
0200384c g     F .text	0000006c profile_userset_value
02014090 g     F .text	00000074 uart_crc_ok
020450a0 g     F .text	00000044 alt_write_flash_command_8bit_device_8bit_mode
02036314 g     F .text	0000001c strtod
0200a050 g     F .text	00000060 set_ge_mac_address
02070e40 g       *ABS*	00000000 __ram_rwdata_end
0200e1a0 g     F .text	0000009c get_sfp_diagnostics
02070e18 g     O .rwdata	00000008 alt_dev_list
02008454 g     F .text	0000007c lld_ChipEraseOp
0202a140 g     F .text	00000364 switch_to_otu2
020245f4 g     F .text	00000020 select_channel_on_bus_y
02015f40 g     F .text	00000050 is_in_booting_state
02044558 g     F .text	000000f8 write
0207887c g     O .bss	00000018 kurs_handler_alarm
02004a00 g     F .text	0000012c StrToU32Def
020109d4 g     F .text	00000114 sfpp_com_check
0200a7c0 g     F .text	0000004c create_gfp_registers
02023d4c g     F .text	00000048 handle_mdio_rd
02033a30 g     F .text	00000008 atof
02030310 g     F .text	000000b8 .hidden __gtsf2
0200b36c g     F .text	00000064 unselect_all_pca9547_channels
02078894 g     O .bss	00000021 pt_cl_9_in_info
0205b4d4 g       *ABS*	00000000 __ram_rodata_end
02018298  w    F .text	00000020 aps_init_callback
02043848 g     F .text	000000b0 fstat
02023840 g     F .text	0000014c register_mapping
02032328 g     F .text	000000e0 .hidden __ledf2
02071160 g     O .bss	00000400 handlers
0202e3b0 g     F .text	00000068 s_task_get_periodic_ticks
020158c8 g     F .text	00000314 reset_transceiver_optical_thresholds
02022f88 g     F .text	000000a0 enable_all_transceivers_tx
0201167c g     F .text	000000ac ipg_si5375_wr
02046360 g     F .text	000000d8 alt_check_primary_table
0201a464 g     F .text	00000548 update_port_fec_stats
0203e898 g     F .text	00000140 __pow5mult
02040c54 g     F .text	000012d0 ___vfiprintf_internal_r
02070fc4 g     O .bss	00000004 __nlocale_changed
02033a28 g     F .text	00000008 .hidden __umodsi3
02044b54 g     F .text	00000064 alt_flash_cfi_read
0202c6c0 g     F .text	00000074 task_2000
0200b804  w    F .text	00000020 reset_pfc_statistics_callback
02045298 g     F .text	00000038 alt_write_native_8bit
0202e66c g     F .text	00000040 semaphore_init
0200a0e4 g     F .text	00000034 enable_ge_mac_rx
020788b5 g     O .bss	00000021 pt_cl_14_in_info
0200a9a8 g     F .text	00000034 enable_gfp_pass_error
0202804c g     F .text	00000038 KURS_ReadLngFile
0200bd98 g     F .text	00000038 get_pfc_ses
0200cdd8 g     F .text	000000d8 get_sfp_rn
02021ddc g     F .text	000000e4 get_board_temperature
02016d74 g     F .text	00000020 init_odu2_wrapper
02013df8 g     F .text	0000021c handle_common
02007b00 g     F .text	000000c0 lld_GetDeviceId
0207cd74 g       *ABS*	00000000 end
02022b38 g     F .text	0000002c isr_125ms
02023b00 g     F .text	00000030 handle_kurs_packet
020450e4 g     F .text	00000078 alt_write_flash_command_16bit_device_8bit_mode
0202398c g     F .text	00000038 systick_isr
02021acc g     F .text	00000050 timer_start
0200273c  w    F .text	0000001c KURS_RebootDelayed
02070f74 g     O .bss	00000004 reply
02017ba0 g     F .text	000000cc sls_open
0200a1bc g     F .text	00000034 clear_ge_counters_ol
02003cf4 g     F .text	00000428 sprintf_s32
02000db0 g     F .text	0000067c HandleKursSetParamValue
02012c58 g     F .text	00000050 ipglb_prot2_receive
0200f078 g     F .text	0000009c sfpp_read_data_block
0206720c g     O .rwdata	00000028 table2_cl5_eth_alrm_add
020476c4 g     F .text	000001ac altera_avalon_uart_write
02066adc g     O .rwdata	00000028 table2_ln1_odu_alrm_add
0200efcc g     F .text	00000020 get_sfpp_driver_version
02067dc4 g     O .rwdata	00000028 table2_cl16_otu_alrm_add
02045614 g     F .text	000005c8 alt_read_cfi_table
020788d6 g     O .bss	00000021 pt_cl_2_in_info
0204659c g     F .text	000000c4 altera_avalon_jtag_uart_init
02070f54 g     O .bss	00000004 i
02066ab4 g     O .rwdata	00000028 table2_ln1_otu_alrm_add
0202bd64 g     F .text	0000022c get_fp_leds
0202970c g     F .text	00000364 switch_to_sonet
0200397c g     F .text	00000378 KURS_HandleRequests
02009f00 g     F .text	00000150 init_ge_mac_ol
020675f4 g     O .rwdata	00000028 table2_cl9_temp_add
0200d408 g     F .text	00000090 init_sfp_data
0202dd98 g     F .text	00000094 scheduler_init
02021a7c g     F .text	00000050 timer_kick
02070f08 g     O .bss	00000004 pt_cl_3_in_cat
02066b04 g     O .rwdata	00000028 table2_ln1_prefecber_add
03000000 g       *ABS*	00000000 __alt_stack_pointer
0201bdb4 g     F .text	000000c8 STATE_TEXT
0201104c g     F .text	00000094 ipg_si5338_change_speed
02046ef8 g     F .text	00000088 alt_avalon_timer_sc_init
02046fe0 g     F .text	00000060 altera_avalon_uart_write_fd
020338a0 g     F .text	00000064 .hidden __clzsi2
020788f8 g     O .bss	0000000c i2c_mux
02047040 g     F .text	00000050 altera_avalon_uart_close_fd
02066e4c g     O .rwdata	00000028 table2_cl2_temp_add
02046c6c g     F .text	00000218 altera_avalon_jtag_uart_write
02021b6c g     F .text	00000174 create_pfc_module
02010140 g     F .text	00000294 get_sfpp_optical_power
020169fc  w    F .text	00000048 get_transceiver_absent
02070f78 g     O .bss	00000002 task_55_hndl
02008f50 g     F .text	00000058 lld_PpbStatusReadOp
02044790 g     F .text	00000090 alt_flash_cfi_init
0201a9ac g     F .text	000002ac update_port_stmx_stats
0203c73c g     F .text	00000004 __sfp_lock_acquire
0203e010 g     F .text	000000e8 memchr
02070f7c g     O .bss	00000004 dvt_processor
02038628 g     F .text	00001f50 ___vfprintf_internal_r
02034760 g     F .text	00000058 _sprintf_r
02078904 g     O .bss	00000021 pt_ln_2_in_info
02018564 g     F .text	000000d0 aps_get_mode
02002758 g     F .text	0000034c GetStrParamValueItem
0203c8a0 g     F .text	000002f0 _free_r
0206aba8 g     O .rwdata	00002010 section_4
02066a3c g     O .rwdata	00000028 table2_ln1_fecload_add
02006270 g     F .text	00000218 MakeBLCfgAnswerHEXCRC
0203de00 g     F .text	00000010 __locale_mb_cur_max
02024694 g     F .text	00000020 select_channel_on_rem_bus_ln0
0202e6ac g     F .text	00000054 semaphore_release
02070ed8 g     O .bss	00000004 arm_ticks
02012460  w    F .text	00000020 custom_init_interface_data
02028388 g     F .text	00000b34 KURS_profile_set_default
0200a2f8 g     F .text	000000d0 map_ge_pcs_regs
02070fc0 g     O .bss	00000004 __mlocale_changed
02070ecc g     O .bss	00000004 ticks_per_500ms
02008d20 g     F .text	000000a8 lld_PpbLockBitSetOp
0200c8c8 g     F .text	000000b0 get_sfp_connector_value
02066c1c g     O .rwdata	00000028 table2_ln2_otu_alrm_add
0201119c g     F .text	00000060 ipg_si5338_recenter
02078925 g     O .bss	00000100 request
0202e5a4 g     F .text	00000074 s_task_flush_msgs
02070e00 g     O .rwdata	00000004 __malloc_sbrk_base
0200019c g     F .text	0000004c _start
02022c04 g     F .text	0000005c put_flash_in_rst
02078a25 g     O .bss	00000010 enable_gmp_fifo_adjustment
02070fd8 g     O .bss	00000004 _alt_tick_rate
02070dd8 g     O .rwdata	00000008 ALS_STATE_TEXT
020669ec g     O .rwdata	00000028 table2_ln1_pin_add
0202fe50 g     F .text	00000070 .hidden __floatundidf
02013d5c g     F .text	00000080 assign_function_handlers
0202de2c g     F .text	0000019c scheduler
0203e9d8 g     F .text	00000150 __lshift
020129fc  w    F .text	00000024 set_if_port_fectype
020089fc g     F .text	00000038 lld_PpbAllEraseCmd
02070fdc g     O .bss	00000004 _alt_nticks
0200fa40 g     F .text	00000700 get_sfpp_optical_power_thresholds
02044130 g     F .text	000000fc read
020446bc g     F .text	0000009c alt_sys_init
0200600c g     F .text	000000a4 kurs_service
0202e22c g     F .text	00000068 s_task_get_priority
02030e18 g     F .text	00000134 .hidden __floatsisf
0203f93c g     F .text	000001cc __ssprint_r
020093bc g     F .text	0000006c cfi_flash_read_byte
02070dc4 g     O .rwdata	00000004 u32MinMax99
0202dbd0 g     F .text	0000018c ring_buffer_get
0202e294 g     F .text	00000064 s_task_set_priority
020146f4 g     F .text	000000d8 handle_fw_rev_func
02034ab0 g     F .text	000000c0 strncmp
02070f18 g     O .bss	00000004 pt_cl_7_in_cat
0202ca7c g     F .text	000001ac task_100
02070f4c g     O .bss	00000004 flagTest1
02028ebc g     F .text	00000030 kurs_handler
02045020 g     F .text	00000040 alt_read_query_entry_16bit
02070f24 g     O .bss	00000004 pt_cl_10_in_cat
0203e69c g     F .text	000001fc __multiply
0202e354 g     F .text	0000005c s_task_resume
0204690c g     F .text	00000068 altera_avalon_jtag_uart_close
02009428 g     F .text	00000048 cfi_flash_write_byte
0205b4d4 g       *ABS*	00000000 __ram_rwdata_start
02006dac g     F .text	000000fc append_preference
020485a0 g       *ABS*	00000000 __ram_rodata_start
02034b70 g     F .text	000000ec strncpy
02071128 g     O .bss	00000028 __malloc_current_mallinfo
02011d00 g     F .text	00000038 handle_user_si5375_config
02043388 g     F .text	00000074 .hidden __eqsf2
0204533c g     F .text	000001bc alt_set_flash_width_func
0203ee9c g     F .text	0000013c __d2b
0200579c g     F .text	0000013c StrToU32
02070eb0 g     O .bss	00000004 ln_desired_tx_freq
0200af7c g     F .text	00000080 MDIO_Read
0202f234 g     F .text	0000019c log10
02067e3c g     O .rwdata	000015f0 section_2
02067054 g     O .rwdata	00000028 table2_cl4_sfpp_pres
02005d20 g     F .text	00000080 kurs_receive
0200a150 g     F .text	00000038 disable_ge_mac_rx
0200aa90 g     F .text	000000b0 open_i2c_bus
02018c48 g     F .text	00000228 update_aps_ptr_data
02015cd0 g     F .text	00000074 read_if_transceiver_diagnostics
02046438 g     F .text	00000060 altera_avalon_jtag_uart_read_fd
02007118 g     F .text	00000170 read_user_settings
02070efc g     O .bss	00000001 slot_id
02078a38 g     O .bss	00000010 arm_uart
0202bb70 g     F .text	000001f4 get_slot_id
02047870 g     F .text	00000158 alt_busy_sleep
0200ab40 g     F .text	0000004c set_i2c_bus_speed
02078a48 g     O .bss	00000018 alarm_1000ms
02007320 g     F .text	00000070 lld_GetVersion
0200b27c g     F .text	0000003c select_pca9516_channel
02042060 g     F .text	00000054 _close_r
0202e144 g     F .text	0000008c s_task_get_handle
0200f6b8 g     F .text	00000090 init_sfpp_data
0200cb54 g     F .text	0000009c sfp_read_data_block
02013ddc  w    F .text	0000001c custom_assign_function_handlers
02016f90 g     F .text	00000020 init_opu4_mapper
02047d54 g     F .text	00000210 alt_erase_block_amd
02018aec g     F .text	000000a4 aps_set_revert_mode
02012204 g     F .text	00000034 ipg_uart_enable
02067644 g     O .rwdata	00000028 table2_cl9_sdh_alrm_add
02034310 g     F .text	0000007c memcmp
020464f8 g     F .text	00000050 altera_avalon_jtag_uart_close_fd
02018a10 g     F .text	00000080 aps_disable
004001bc g       *ABS*	00000000 __alt_stack_base
02046548 g     F .text	00000054 altera_avalon_jtag_uart_ioctl_fd
02070da8 g     O .rwdata	00000004 step_size_registers
0200a0b0 g     F .text	00000034 enable_ge_mac_tx
0202fdb4 g     F .text	0000009c .hidden __floatundisf
020715b8 g     O .bss	00000024 top_level_misc_reg
02007668 g     F .text	00000030 lld_CfiEntryCmd
020675a4 g     O .rwdata	00000028 table2_cl9_pout_add
02011500 g     F .text	00000050 handle_user_si5338_write
0203a6cc g     F .text	00000154 __swsetup_r
02045bdc g     F .text	00000784 alt_read_cfi_width
020246d4 g     F .text	000000f0 select_channel_on_bus4
020486cc g     O .rodata	00000200 crc_16_tab
02070ee7 g     O .bss	00000001 flag_50ms_event
020674b4 g     O .rwdata	00000028 table2_cl8_sfpp_pres
02078a60 g     O .bss	00000021 pt_ln_1_in_info
020318f8 g     F .text	000008cc .hidden __divdf3
02066ba4 g     O .rwdata	00000028 table2_ln2_fecload_add
0203c5fc g     F .text	00000118 __sfp
0200f8f8 g     F .text	00000148 get_sfpp_temperature
020095f0 g     F .text	00000098 als_get_state
0203f0f0 g     F .text	00000078 __copybits
0200653c g     F .text	00000044 MakeAddrAnswerHEXCRC
0206f588 g     O .rwdata	00000408 __malloc_av_
020097f4 g     F .text	0000008c Delay_ms
0203c748 g     F .text	00000004 __sinit_lock_release
020674dc g     O .rwdata	00000028 table2_cl8_temp_add
02009304 g     F .text	000000b8 cfi_flash_erase
02070ee4 g     O .bss	00000001 flag_1ms_event
020079b8 g     F .text	00000038 lld_ProgramResumeCmd
02032408 g     F .text	00000724 .hidden __muldf3
0203f75c g     F .text	00000054 __sread
02070f3c g     O .bss	00000004 pt_cl_16_in_cat
02070f98 g     O .bss	00000002 idle_s_task_hndl
02017294 g     F .text	0000018c sls_avalon_i2c_write
02005ce8 g     F .text	00000038 kurs_processor_set_sop
02011ff8 g     F .text	00000048 ipg_uart_clear_ORE
02070eee g     O .bss	00000001 flag_5000ms_event
02017f4c g     F .text	000000e0 map_stm1416_regs
020079f0 g     F .text	00000088 lld_EraseSuspendOp
02070f80 g     O .bss	00000004 kurs_req_processor
0205b4d4 g     O .rwdata	00009688 profile
02007618 g     F .text	00000050 lld_WriteBufferAbortResetCmd
02047a18 g     F .text	000000a4 alt_dev_llist_insert
020440a0 g     F .text	00000020 __malloc_lock
020678c4 g     O .rwdata	00000028 table2_cl12_pin_add
0204428c g     F .text	000000b0 sbrk
02067cfc g     O .rwdata	00000028 table2_cl15_eth_alrm_add
02070f14 g     O .bss	00000004 pt_cl_6_in_cat
020087fc g     F .text	00000098 lld_PasswordProtectionReadCmd
02036698 g     F .text	00001f90 ___svfprintf_internal_r
0200a678 g     F .text	00000094 get_ge_pcs_link
02078a84 g     O .bss	00000018 alarm_2000ms
0201819c g     F .text	00000060 aps_reset
02007bc0 g     F .text	0000007c lld_SetConfigRegCmd
0202e618 g     F .text	00000054 scheduler_get_stats
0200a5d4 g     F .text	00000038 disable_ge_pcs_an
0203c350 g     F .text	0000005c _fflush_r
02033a6c g     F .text	000000c4 _calloc_r
02078a9c g     O .bss	0000000c rbattr_data_to_kurs_uart
02070e64 g     O .bss	00000001 save
0200a540 g     F .text	00000094 init_ge_pcs_ol
02070e28 g     O .rwdata	00000008 alt_flash_dev_list
020673ec g     O .rwdata	00000028 table2_cl7_otu_alrm_add
020451ac g     F .text	0000004c alt_write_flash_command_16bit_device_16bit_mode
02066d84 g     O .rwdata	00000028 table2_cl1_sdh_alrm_add
020676e4 g     O .rwdata	00000028 table2_cl10_sfpp_pres
02025d90 g     F .text	00000064 map_als_from_kurs_value
02070f10 g     O .bss	00000004 pt_cl_5_in_cat
02066c6c g     O .rwdata	00000028 table2_ln2_prefecber_add
02070eec g     O .bss	00000001 flag_1000ms_event
02070e40 g       *ABS*	00000000 __bss_start
02015c4c g     F .text	00000084 read_if_transceiver_opt_pwr_thresholds
020344c4 g     F .text	00000124 memset
020035a8 g     F .text	00000120 get_param_by_id
0200cac8 g     F .text	0000008c sfp_read_data
02020f78 g     F .text	00000b04 main
0202b898 g     F .text	0000008c callback_uart_roe
0200b5e0 g     F .text	00000028 get_pfc_index
02070f84 g     O .bss	00000004 _sfpp_ln
02014104 g     F .text	00000378 handle_mmap_func
02070fd4 g     O .bss	00000004 alt_envp
0200776c g     F .text	00000054 lld_UnlockBypassProgramCmd
02070fac g     O .bss	00000004 __malloc_max_total_mem
020678ec g     O .rwdata	00000028 table2_cl12_pout_add
02078aa8 g     O .bss	00000021 pt_cl_1_in_info
02066f8c g     O .rwdata	00000028 table2_cl3_otu_alrm_add
02011598 g     F .text	00000030 handle_user_si5338_config
02007a78 g     F .text	00000088 lld_ProgramSuspendOp
02046498 g     F .text	00000060 altera_avalon_jtag_uart_write_fd
02006d84 g     F .text	00000028 get_preferences_list_size
0200ef98 g     F .text	00000034 sfpp_select_msa
02042634 g     F .text	0000001c __swbuf
0200ceb0 g     F .text	000000c8 get_sfp_sn
020131ac g     F .text	00000028 ipglb_prot2_processor_get_context
020303c8 g     F .text	000000b8 .hidden __ltsf2
0200e23c g     F .text	000000d4 get_sfp_info
0200a2a4 g     F .text	00000054 create_gepcs_registers
02001fa8 g     F .text	000000a8 HandleKursUnknownCommand
02016dd0 g     F .text	000000c8 map_odu2_wrapper_regs_ol
0203f890 g     F .text	00000008 __sclose
0202f614 g     F .text	00000008 matherr
03000000 g       *ABS*	00000000 __alt_heap_limit
0202c1c0 g     F .text	0000047c update_if_kurs_power
020421a4 g     F .text	00000014 fclose
02023028 g     F .text	00000818 configure_board_clocks
02067464 g     O .rwdata	00000028 table2_cl8_pin_add
02078ac9 g     O .bss	00000021 pt_cl_12_in_info
020189d0 g     F .text	00000040 aps_get_ho
02036434 g     F .text	00000240 _strtol_r
02033708 g     F .text	00000198 .hidden __truncdfsf2
02008664 g     F .text	00000050 lld_LockRegEntryCmd
02027538 g     F .text	00000af0 KURS_userget_color
0203aa20 g     F .text	00001728 _dtoa_r
02033b68 g     F .text	000007a8 _malloc_r
0201696c  w    F .text	00000048 get_transceiver_los
02078aea g     O .bss	00000021 pt_cl_6_in_info
020427ac g     F .text	00000030 __ascii_wctomb
020246b4 g     F .text	00000020 select_channel_on_rem_bus_ln1
02008e88 g     F .text	000000c8 lld_PpbProgramOp
02070e24 g     O .rwdata	00000004 alt_errno
02078b0c g     O .bss	00000318 pout
02067a04 g     O .rwdata	00000028 table2_cl13_pout_add
02045248 g     F .text	00000050 alt_write_flash_command_32bit_device_32bit_mode
020280d8 g     F .text	000002b0 KURS_profile_init
0203d050 g     F .text	000000c4 _fwalk
0200d498 g     F .text	000001cc get_sfp_id
02010b9c g     F .text	000000a4 ipg_si5326_wr
0200411c g     F .text	00000110 StrToU16
020169b4  w    F .text	00000048 get_transceiver_txfault
02044bb8 g     F .text	00000158 alt_write_value_to_flash
0202cc28 g     F .text	000009b0 task_10
020452d0 g     F .text	00000038 alt_write_native_16bit
02066fb4 g     O .rwdata	00000028 table2_cl3_sdh_alrm_add
02033970 g     F .text	00000054 .hidden __divsi3
02070ff8 g     O .bss	00000040 port_rate_change_flag
0203c77c g     F .text	00000124 _malloc_trim_r
02022bac g     F .text	0000002c isr_2s
02070ef8 g     O .bss	00000004 if_index
02030480 g     F .text	00000424 .hidden __mulsf3
02066a64 g     O .rwdata	00000028 table2_ln1_sfp_pres
0202af80 g     F .text	00000918 dump_statistics
02009da0 g     F .text	00000160 init_ge_mac
0203f898 g     F .text	000000a4 strcmp
020485a0 g       *ABS*	00000000 __flash_rodata_start
0202c63c g     F .text	00000084 send_9bit_uart_packet
02015e50 g     F .text	00000050 is_in_query_state
0202d860 g     F .text	000001e4 ring_buffer_put_many
02008af4 g     F .text	00000038 lld_PpbLockBitSetCmd
020084d0 g     F .text	00000194 lld_memcpy
020321c4 g     F .text	00000084 .hidden __nedf2
0200054c g     F .text	000000a4 HandleKursRdDeviceClass
02044688 g     F .text	00000034 alt_irq_init
0204422c g     F .text	00000060 alt_release_fd
02019948 g     F .text	00000168 custom_init_port_data
02005b14 g     F .text	00000090 calc_crc16
02066f14 g     O .rwdata	00000028 table2_cl3_pout_add
02023ad0 g     F .text	00000030 handle_debug_packet
020347b8 g     F .text	0000006c sprintf
0205adae g     O .rodata	00000100 .hidden __clz_tab
02015bdc  w    F .text	00000070 read_if_transceiver_info
0202aaec g     F .text	000001a4 adjust_ppm
02070fbc g     O .bss	00000004 _PathLocale
0200d7ac g     F .text	00000760 get_sfp_optical_power_thresholds
02067cac g     O .rwdata	00000028 table2_cl15_otu_alrm_add
0206761c g     O .rwdata	00000028 table2_cl9_otu_alrm_add
0201ff6c g     F .text	000000a8 map_otu2_brick_dual_regs
020123f0 g     F .text	00000070 init_interface_data
02008a6c g     F .text	00000038 lld_PpbExitCmd
02066f64 g     O .rwdata	00000028 table2_cl3_temp_add
02036330 g     F .text	00000104 strtof
02078e24 g     O .bss	00002000 data_to_kurs_uart_buff
02070e78 g     O .bss	00000004 g_writebuffer_sector
020113a0 g     F .text	00000054 ipg_si5338_enable_freq_inc_dec
0200915c g     F .text	00000070 cfi_flash_init
020120c0 g     F .text	00000034 ipg_uart_enable_IROE
02030310 g     F .text	000000b8 .hidden __gesf2
02042004 g     F .text	0000005c _write_r
02016fec g     F .text	00000068 map_opu4_mapper_regs_ol
0200a640 g     F .text	00000038 is_ge_pcs_an_on
0203a658 g     F .text	00000050 _vsprintf_r
0200a60c g     F .text	00000034 enable_ge_pcs_an
0202ac90 g     F .text	000002f0 reconfigure_ge_port
02024674 g     F .text	00000020 select_channel_on_rem_bus_y
0203de30 g     F .text	0000001c setlocale
02008ca0 g     F .text	00000038 lld_DybExitCmd
0207ae24 g     O .bss	00001848 si5375
0200a118 g     F .text	00000038 disable_ge_mac_tx
02006ea8 g     F .text	000000a4 list_to_array
0200b0d4 g     F .text	000000c0 MDIO_Read_advanced
02015774 g     F .text	000000fc reset_transceiver_id
0200b6c0 g     F .text	000000ac reset_pfc_statistics
02010c40 g     F .text	000000a0 ipg_si5326_rd
02020398 g     F .text	000000e0 logger_print_one
0202e758 g     F .text	00000030 semaphore_available
02070dfc g     O .rwdata	00000004 _impure_ptr
0206942c g     O .rwdata	0000126c section_3
0200ae5c g     F .text	00000090 ipg_mcp9808_wr
02008000 g     F .text	00000168 lld_StatusGetReg
02070fcc g     O .bss	00000004 alt_argc
0203c148 g     F .text	00000208 __sflush_r
0207c66c g     O .bss	00000021 pt_cl_7_in_info
02009524 g     F .text	00000040 init_als_data
020078ac g     F .text	000000d0 lld_EraseSuspendCmd
0207cc5c g     O .bss	0000000c sched_info
02021b1c g     F .text	00000050 timer_stop
0207c690 g     O .bss	00000010 xi2c_bus
02066fdc g     O .rwdata	00000028 table2_cl3_eth_alrm_add
0203de1c g     F .text	00000008 __locale_cjk_lang
0202f628 g     F .text	00000718 __ieee754_log
02016e98 g     F .text	00000044 create_odu2_wrapper_regs
02012238 g     F .text	00000038 ipg_uart_disable
02026cbc g     F .text	0000087c KURS_userset_value
0200cd10 g     F .text	000000c8 get_sfp_vn
020086b4 g     F .text	00000040 lld_LockRegBitsProgramCmd
02002aa4 g     F .text	000004c4 TestProg
02016b40 g     F .text	00000028 set_if_transceiver_txpower
02017054 g     F .text	00000104 sls_avalon_i2c_init
0207c6a0 g     O .bss	00000018 alarm_100ms
0200b794 g     F .text	00000070 set_pfc_monitor_period
0206716c g     O .rwdata	00000028 table2_cl5_sfpp_pres
0202e700 g     F .text	00000058 semaphore_hold
02024594 g     F .text	00000020 callback_update_if_dynamic_data
02012160 g     F .text	00000038 ipg_uart_disable_IRRDY
02066b54 g     O .rwdata	00000028 table2_ln2_pin_add
00400020 g       .exceptions	00000000 alt_irq_entry
0201279c g     F .text	00000214 reset_port_counters
0202b9f4 g     F .text	000000b8 callback_uart_rrdy
02066d5c g     O .rwdata	00000028 table2_cl1_otu_alrm_add
02007da4 g     F .text	000001e0 lld_StatusGet
02070ef3 g     O .bss	00000001 line_lb_detected
02005ab4 g     F .text	00000060 calc_crc_value
0203ed20 g     F .text	00000060 __ulp
0203c764 g     F .text	00000018 __fp_unlock_all
02070ed4 g     O .bss	00000004 kurs_ticks
02067b6c g     O .rwdata	00000028 table2_cl14_temp_add
02029a70 g     F .text	0000036c switch_to_ge
020188f4 g     F .text	00000044 aps_get_WTR
020130f0 g     F .text	000000bc ipglb_prot2_service
020110e0 g     F .text	000000bc ipg_si5338_change_step
02004b2c g     F .text	00000264 Str4HexToU16
02025df4 g     F .text	000000e0 map_rate_from_kurs_value
0202b924 g     F .text	000000d0 callback_uart_trdy
02070e10 g     O .rwdata	00000008 alt_fs_list
020117c8 g     F .text	00000448 ipg_si5375_config
02015ef0 g     F .text	00000050 is_in_absent_state
0202f22c g     F .text	00000008 infinityf
02001d28 g     F .text	00000280 HandleKursReadLangPackCommand
0201134c g     F .text	00000054 ipg_si5338_disable_freq_inc_dec
02024634 g     F .text	00000020 select_channel_on_bus_ln1
0200f748 g     F .text	000001b0 get_sfpp_id
0200797c g     F .text	0000003c lld_EraseResumeCmd
0207c6b8 g     O .bss	00000160 board_leds
02067a54 g     O .rwdata	00000028 table2_cl13_temp_add
0204515c g     F .text	00000050 alt_write_flash_command_32bit_device_8bit_mode
02070dd0 g     O .rwdata	00000004 s32_min_max_100
02067cd4 g     O .rwdata	00000028 table2_cl15_sdh_alrm_add
0201ac58 g     F .text	00000c70 update_port_otux_stats
0202f61c g     F .text	0000000c nan
02010ef0 g     F .text	000000b4 ipg_si5338_wr
0200b5b0 g     F .text	00000030 set_pfc_index
02067694 g     O .rwdata	00000028 table2_cl10_pin_add
020004c0 g     F .text	00000028 profile_init
02070f88 g     O .bss	00000002 task_10_hndl
0201be7c g     F .text	00000020 callback_on_transceiver_los_change
00400020 g       *ABS*	00000000 __ram_exceptions_start
020677d4 g     O .rwdata	00000028 table2_cl11_pout_add
020073f0 g     F .text	00000090 lld_SectorEraseCmd
0203de4c g     F .text	0000000c localeconv
02066dd4 g     O .rwdata	00000028 table2_cl2_pin_add
02067964 g     O .rwdata	00000028 table2_cl12_otu_alrm_add
02066eec g     O .rwdata	00000028 table2_cl3_pin_add
02009564 g     F .text	00000034 deinit_als
0207c818 g     O .bss	00000010 rem_i2c_bus4
0200b8e8 g     F .text	00000090 start_pfc_monitoring
02016718  w    F .text	000000b0 read_transceiver_dynamic_data
02070e68 g     O .bss	00000004 usBuffer
0202909c g     F .text	00000098 queue_data_to_arm
02029438 g     F .text	000002d4 init_als_module
02028eec g     F .text	00000030 dvt_handler
02005058 g     F .text	00000134 Str8HexToU32
02043928 g     F .text	00000050 alt_ic_isr_register
020058d8 g     F .text	00000130 StrHexToU32
0207c828 g     O .bss	00000021 pt_cl_10_in_info
0200b978 g     F .text	0000005c stop_pfc_monitoring
02008dc8 g     F .text	000000c0 lld_PpbAllEraseOp
02070e40 g       *ABS*	00000000 _edata
02046f80 g     F .text	00000060 altera_avalon_uart_read_fd
020672ac g     O .rwdata	00000028 table2_cl6_temp_add
0200cbf0 g     F .text	00000080 sfp_write_data
0207cd74 g       *ABS*	00000000 _end
02022bd8 g     F .text	0000002c isr_5s
020672d4 g     O .rwdata	00000028 table2_cl6_otu_alrm_add
02043740 g     F .text	00000068 alt_flash_open_dev
0200f518 g     F .text	000000c8 get_sfpp_pn
0200affc g     F .text	000000d8 MDIO_Write_advanced
004001bc g       *ABS*	00000000 __ram_exceptions_end
02046974 g     F .text	000000ec altera_avalon_jtag_uart_ioctl
02016b68 g     F .text	0000005c set_if_transceiver_tx_freq
02018938 g     F .text	00000098 aps_set_ho
02070f44 g     O .bss	00000004 pt_ln_2_in_cat
02023d94 g     F .text	00000054 handle_mdio_wr
02066bf4 g     O .rwdata	00000028 table2_ln2_temp_add
020673c4 g     O .rwdata	00000028 table2_cl7_temp_add
02016fb0 g     F .text	0000003c map_opu4_mapper_regs
02070f5c g     O .bss	00000004 counter_ores_dvt
02005fc0  w    F .text	00000024 kurs_pkt_ok_callback
0200ade0 g     F .text	0000007c ipg_mcp9808_rd
0202bf90 g     F .text	00000230 set_status_led
02012040 g     F .text	00000080 map_uart_regs
02007874 g     F .text	00000038 lld_ProgramSuspendCmd
02070efd g     O .bss	00000001 restore
0200aeec g     F .text	00000090 MDIO_Write
02043a18 g     F .text	000000a4 alt_ic_irq_disable
02002f68 g     F .text	00000608 SetStrValueItem
0207c84c g     O .bss	00000080 _aps
0206784c g     O .rwdata	00000028 table2_cl11_otu_alrm_add
02022a20 g     F .text	00000040 IPGLB_ReadLngFileCallback
02022d58 g     F .text	00000038 cancel_request
02008b90 g     F .text	00000050 lld_DybEntryCmd
0207c8cc g     O .bss	00000018 arm_handler_alarm
0203f7b8 g     F .text	0000007c __swrite
02011728 g     F .text	000000a0 ipg_si5375_rd
02070e40 g     O .bss	00000004 expected_flash_data_count
02000520 g     F .text	0000002c profile_save_prefs
0205ad90 g     O .rodata	00000018 priority_cycle
02070e04 g     O .rwdata	00000004 __malloc_trim_threshold
020155f0 g     F .text	00000184 create_transceiver
02008214 g     F .text	00000040 lld_ReadOp
0206a698 g     O .rwdata	00000510 section_103
020121cc g     F .text	00000038 ipg_uart_disable_ITRDY
02010e0c g     F .text	00000030 handle_user_si5326_config
02047ccc g     F .text	00000020 altera_nios2_qsys_irq_init
0203de10 g     F .text	0000000c __locale_msgcharset
0200e310 g     F .text	000001b0 get_sfp_capabilities
02022ae0 g     F .text	0000002c isr_10ms
0200d040 g     F .text	00000080 handle_user_sfp_read
02017948 g     F .text	0000004c checKAck
02070edc g     O .bss	00000004 dvt_ticks
0203d114 g     F .text	000000c4 _fwalk_reent
02030f4c g     F .text	00000110 .hidden __floatunsisf
0203eb88 g     F .text	00000198 __mdiff
020437a8 g     F .text	00000050 alt_flash_close_dev
020677ac g     O .rwdata	00000028 table2_cl11_pin_add
0201fb20 g     F .text	000000c8 callback_on_transceiver_state_change
020339c4 g     F .text	0000005c .hidden __modsi3
0200f450 g     F .text	000000c8 get_sfpp_sn
0200b4ec g     F .text	00000090 init_pfc_data
02014014 g     F .text	0000007c uart_calculate_crc
02070df4 g     O .rwdata	00000004 __ctype_ptr__
02004d90 g     F .text	000000c0 UintToHexStr
02022a60 g     F .text	00000040 IPGLB_WriteUserPrefsCallback
0207c8e4 g     O .bss	00000318 pin
03000000 g       *ABS*	00000000 __alt_data_end
02023a24 g     F .text	00000048 read_fpga_number
00400020 g     F .exceptions	00000000 alt_exception
0206707c g     O .rwdata	00000028 table2_cl4_temp_add
0201c6bc g     F .text	00002b24 set_if_port_rate
0203c740 g     F .text	00000004 __sfp_lock_release
02070f8a g     O .bss	00000002 task_2000_hndl
02000000 g       *ABS*	00000000 __alt_mem_sdram
02012bdc g     F .text	0000007c ipglb_prot2_processor_init
02012668 g     F .text	00000058 init_port_data
0207cbfc g     O .bss	00000010 ln1_i2c_bus3
02070ebc g     O .bss	00000004 s32_min_max_0
02070eed g     O .bss	00000001 flag_2000ms_event
0200d0c0 g     F .text	00000088 handle_user_sfp_write
02070f04 g     O .bss	00000004 pt_cl_2_in_cat
0205aeae g     O .rodata	00000101 _ctype_
0200620c g     F .text	00000064 PrepareEraseProgCopy
0201655c g     F .text	000000a0 run_transceiver_booting_state
02018850 g     F .text	000000a4 aps_set_wtr
02006aec g     F .text	0000011c FlashCalcCRC32
02064c48 g     O .rwdata	00001258 Profile_Text
02025ed4 g     F .text	00000de8 KURS_userget_value
020670a4 g     O .rwdata	00000028 table2_cl4_otu_alrm_add
02020274 g     F .text	0000005c logger_init
020473f4 g     F .text	00000054 altera_avalon_uart_close
0207cc68 g     O .bss	0000000c mbox_info
02070eac g     O .bss	00000004 dummy_aps
02008fa8 g     F .text	00000048 lld_LockRegBitsReadOp
0207cc0c g     O .bss	00000021 pt_cl_4_in_info
0201bf44 g     F .text	000000f0 update_diagnostic_alarms
02067234 g     O .rwdata	00000028 table2_cl6_pin_add
0040001c g       .entry	00000000 _exit
02010954 g     F .text	00000080 get_sfpp_info
0201212c g     F .text	00000034 ipg_uart_enable_IRRDY
0201802c g     F .text	00000044 create_stm1416_registers
020433fc g     F .text	00000140 alt_alarm_start
0201307c  w    F .text	00000028 ipglb_prot2_rx_ok_callback
02070f8c g     O .bss	00000004 rb_data_to_kurs_uart
02070f60 g     O .bss	00000004 counter_tmr0_run_bit
02070e44 g     O .bss	00000004 block_color
0203de58 g     F .text	000001b8 __smakebuf_r
02045308 g     F .text	00000034 alt_write_native_32bit
020086f4 g     F .text	0000002c lld_LockRegBitsReadCmd
02067784 g     O .rwdata	00000028 table2_cl10_eth_alrm_add
02034a18 g     F .text	00000098 strlen
0206699c g     O .rwdata	00000028 table2_alarm2_add
02066e74 g     O .rwdata	00000028 table2_cl2_otu_alrm_add
02022b64 g     F .text	00000048 isr_1s
0201f654 g     F .text	000004cc set_if_port_loopback
02032248 g     F .text	000000e0 .hidden __gedf2
02023de8 g     F .text	00000320 handle_i2c_wr
0206725c g     O .rwdata	00000028 table2_cl6_pout_add
02067b1c g     O .rwdata	00000028 table2_cl14_pout_add
02015ea0 g     F .text	00000050 is_in_comcheck_state
0203d2d8 g     F .text	00000834 __gethex
0200bc18 g     F .text	00000040 get_pfc_bber
02070dd4 g     O .rwdata	00000004 steps_reg
02009598 g     F .text	00000030 set_als_index
02070f30 g     O .bss	00000004 pt_cl_13_in_cat
02044ac8 g     F .text	0000008c alt_flash_cfi_get_info
02067144 g     O .rwdata	00000028 table2_cl5_pout_add
02070e0c g     O .rwdata	00000004 __wctomb
0200efec g     F .text	0000008c sfpp_read_data
02040c3c g     F .text	00000018 __sprint_r
020438f8 g     F .text	00000030 alt_icache_flush_all
02028028 g     F .text	00000024 KURS_NewLngpackCallback
02034824 g     F .text	00000164 strchr
02070ee8 g     O .bss	00000001 flag_100ms_event
02024654 g     F .text	00000020 select_channel_on_rem_bus_x
0202e2f8 g     F .text	0000005c s_task_suspend
02008a34 g     F .text	00000038 lld_PpbStatusReadCmd
02070e30 g     O .rwdata	00000004 alt_priority_mask
0201485c g     F .text	00000228 handle_mdio_func
0202da44 g     F .text	0000018c ring_buffer_put
020229e0 g     F .text	00000040 IPGLB_ReadUserPrefsCallback
02066a8c g     O .rwdata	00000028 table2_ln1_temp_add
02067554 g     O .rwdata	00000028 table2_cl8_eth_alrm_add
020670cc g     O .rwdata	00000028 table2_cl4_sdh_alrm_add
02043978 g     F .text	000000a0 alt_ic_irq_enable
0201c128 g     F .text	00000218 update_card_alarm1
0203a578 g     F .text	00000024 __vfprintf_internal
02047498 g     F .text	000001dc altera_avalon_uart_read
020427dc g     F .text	0000005c _wctomb_r
02028084 g     F .text	00000054 KURS_WriteLngFileToFlash
02000890 g     F .text	00000520 HandleKursRdStrValueAndColor
0201be9c g     F .text	000000a8 get_if_port_fectype
02067be4 g     O .rwdata	00000028 table2_cl14_eth_alrm_add
0200bd60 g     F .text	00000038 get_pfc_es
02029134 g     F .text	0000008c queue_many_to_arm
02066ce4 g     O .rwdata	00000028 table2_cl1_pout_add
02032b2c g     F .text	000008d0 .hidden __subdf3
02009708 g     F .text	0000007c als_disable
02067a7c g     O .rwdata	00000028 table2_cl13_otu_alrm_add
0203e5b0 g     F .text	000000b0 __lo0bits
020122b4 g     F .text	00000088 ipg_uart_transmit
0207cc30 g     O .bss	00000010 om_voltage_fault
0200d2a0 g     F .text	00000084 handle_user_sfp_read_block
020187cc g     F .text	00000040 aps_get_work_channel
020120f4 g     F .text	00000038 ipg_uart_disable_IROE
02070e38 g     O .rwdata	00000008 alt_alarm_list
02067c0c g     O .rwdata	00000028 table2_cl15_pin_add
02022c60 g     F .text	000000f8 RATE_TEXT
02066ec4 g     O .rwdata	00000028 table2_cl2_eth_alrm_add
0200f288 g     F .text	0000007c handle_user_sfpp_read
0200df0c g     F .text	00000294 get_sfp_optical_power
0200ac9c g     F .text	00000144 mcp9808_get_temperature
020038e4 g     F .text	0000006c user_get_color
02070ec4 g     O .bss	00000004 ticks_per_1ms
02067aa4 g     O .rwdata	00000028 table2_cl13_sdh_alrm_add
020426ec g     F .text	000000c0 wcrtomb
02025ca4 g     F .text	000000ec map_rate_to_kurs_value
0207cc40 g     O .bss	00000010 ln0_i2c_bus2
02021ec0 g     F .text	00000b20 build_preferences_list
0204358c g     F .text	000000d0 close
02047cec g     F .text	00000068 alt_program_amd
02070eef g     O .bss	00000001 selected_if
0207cc50 g     O .bss	0000000c rem_i2c_mux
02070f38 g     O .bss	00000004 pt_cl_15_in_cat
02016d94 g     F .text	0000003c map_odu2_wrapper_regs
0206770c g     O .rwdata	00000028 table2_cl10_temp_add
02043eb0 g     F .text	00000080 alt_load
020081c4 g     F .text	00000050 lld_SecSiSectorEntryCmd
0202e418 g     F .text	000000a8 s_task_set_periodic_ticks
02067d24 g     O .rwdata	00000028 table2_cl16_pin_add
02070f90 g     O .bss	00000004 temp_mem_address
02001888 g     F .text	0000024c HandleKursGetColorDegradeAndFailure
0200a3c8 g     F .text	000000d0 map_ge_pcs_regs_ol
0204233c g     F .text	0000005c fputwc
02067284 g     O .rwdata	00000028 table2_cl6_sfpp_pres
02009268 g     F .text	0000009c cfi_flash_read
02011550 g     F .text	00000048 handle_user_si5338_read
02033b54 g     F .text	00000014 free
0203c744 g     F .text	00000004 __sinit_lock_acquire
02070e70 g     O .bss	00000001 g_suspend_state
02010ce0 g     F .text	00000094 ipg_si5326_config
0203e324 g     F .text	00000120 __multadd
0203e2fc g     F .text	00000028 _Bfree
02067d4c g     O .rwdata	00000028 table2_cl16_pout_add
0206775c g     O .rwdata	00000028 table2_cl10_sdh_alrm_add
0206798c g     O .rwdata	00000028 table2_cl12_sdh_alrm_add



Disassembly of section .entry:

00400000 <__reset>:
  400000:	00840014 	movui	r2,4096
  400004:	1001483a 	initi	r2
  400008:	10bff804 	addi	r2,r2,-32
  40000c:	00bffd16 	blt	zero,r2,400004 <__alt_data_end+0xfd400004>
  400010:	00408034 	movhi	at,512
  400014:	08406714 	ori	at,at,412
  400018:	0800683a 	jmp	at

0040001c <_exit>:
  40001c:	00000000 	call	0 <__alt_mem_constants-0x2000>

Disassembly of section .exceptions:

00400020 <alt_exception>:
  400020:	deffed04 	addi	sp,sp,-76
  400024:	dfc00015 	stw	ra,0(sp)
  400028:	d8400215 	stw	at,8(sp)
  40002c:	d8800315 	stw	r2,12(sp)
  400030:	d8c00415 	stw	r3,16(sp)
  400034:	d9000515 	stw	r4,20(sp)
  400038:	d9400615 	stw	r5,24(sp)
  40003c:	d9800715 	stw	r6,28(sp)
  400040:	d9c00815 	stw	r7,32(sp)
  400044:	000b307a 	rdctl	r5,estatus
  400048:	da000915 	stw	r8,36(sp)
  40004c:	da400a15 	stw	r9,40(sp)
  400050:	da800b15 	stw	r10,44(sp)
  400054:	dac00c15 	stw	r11,48(sp)
  400058:	db000d15 	stw	r12,52(sp)
  40005c:	db400e15 	stw	r13,56(sp)
  400060:	db800f15 	stw	r14,60(sp)
  400064:	dbc01015 	stw	r15,64(sp)
  400068:	d9401115 	stw	r5,68(sp)
  40006c:	ebffff04 	addi	r15,ea,-4
  400070:	dbc01215 	stw	r15,72(sp)
  400074:	0009313a 	rdctl	r4,ipending
  400078:	2880004c 	andi	r2,r5,1
  40007c:	10000326 	beq	r2,zero,40008c <alt_exception+0x6c>
  400080:	20000226 	beq	r4,zero,40008c <alt_exception+0x6c>
  400084:	04000ec0 	call	4000ec <alt_irq_handler>
  400088:	00000306 	br	400098 <alt_exception_unknown+0x4>
  40008c:	df401215 	stw	ea,72(sp)
  400090:	e8bfff17 	ldw	r2,-4(ea)

00400094 <alt_exception_unknown>:
  400094:	003da03a 	break	0
  400098:	d9401117 	ldw	r5,68(sp)
  40009c:	df401217 	ldw	ea,72(sp)
  4000a0:	dfc00017 	ldw	ra,0(sp)
  4000a4:	2801707a 	wrctl	estatus,r5
  4000a8:	d8400217 	ldw	at,8(sp)
  4000ac:	d8800317 	ldw	r2,12(sp)
  4000b0:	d8c00417 	ldw	r3,16(sp)
  4000b4:	d9000517 	ldw	r4,20(sp)
  4000b8:	d9400617 	ldw	r5,24(sp)
  4000bc:	d9800717 	ldw	r6,28(sp)
  4000c0:	d9c00817 	ldw	r7,32(sp)
  4000c4:	da000917 	ldw	r8,36(sp)
  4000c8:	da400a17 	ldw	r9,40(sp)
  4000cc:	da800b17 	ldw	r10,44(sp)
  4000d0:	dac00c17 	ldw	r11,48(sp)
  4000d4:	db000d17 	ldw	r12,52(sp)
  4000d8:	db400e17 	ldw	r13,56(sp)
  4000dc:	db800f17 	ldw	r14,60(sp)
  4000e0:	dbc01017 	ldw	r15,64(sp)
  4000e4:	dec01304 	addi	sp,sp,76
  4000e8:	ef80083a 	eret

004000ec <alt_irq_handler>:
  4000ec:	defff904 	addi	sp,sp,-28
  4000f0:	dfc00615 	stw	ra,24(sp)
  4000f4:	df000515 	stw	fp,20(sp)
  4000f8:	df000504 	addi	fp,sp,20
  4000fc:	0001883a 	nop
  400100:	0005313a 	rdctl	r2,ipending
  400104:	e0bffe15 	stw	r2,-8(fp)
  400108:	e0bffe17 	ldw	r2,-8(fp)
  40010c:	e0bffb15 	stw	r2,-20(fp)
  400110:	e03ffd15 	stw	zero,-12(fp)
  400114:	00800044 	movi	r2,1
  400118:	e0bffc15 	stw	r2,-16(fp)
  40011c:	e0fffb17 	ldw	r3,-20(fp)
  400120:	e0bffc17 	ldw	r2,-16(fp)
  400124:	1884703a 	and	r2,r3,r2
  400128:	10001426 	beq	r2,zero,40017c <alt_irq_handler+0x90>
  40012c:	00808234 	movhi	r2,520
  400130:	10b31d04 	addi	r2,r2,-13196
  400134:	e0fffd17 	ldw	r3,-12(fp)
  400138:	180690fa 	slli	r3,r3,3
  40013c:	10c5883a 	add	r2,r2,r3
  400140:	10c00017 	ldw	r3,0(r2)
  400144:	00808234 	movhi	r2,520
  400148:	10b31d04 	addi	r2,r2,-13196
  40014c:	e13ffd17 	ldw	r4,-12(fp)
  400150:	200890fa 	slli	r4,r4,3
  400154:	21000104 	addi	r4,r4,4
  400158:	1105883a 	add	r2,r2,r4
  40015c:	10800017 	ldw	r2,0(r2)
  400160:	1009883a 	mov	r4,r2
  400164:	183ee83a 	callr	r3
  400168:	0001883a 	nop
  40016c:	0005313a 	rdctl	r2,ipending
  400170:	e0bfff15 	stw	r2,-4(fp)
  400174:	e0bfff17 	ldw	r2,-4(fp)
  400178:	00000706 	br	400198 <alt_irq_handler+0xac>
  40017c:	e0bffc17 	ldw	r2,-16(fp)
  400180:	1085883a 	add	r2,r2,r2
  400184:	e0bffc15 	stw	r2,-16(fp)
  400188:	e0bffd17 	ldw	r2,-12(fp)
  40018c:	10800044 	addi	r2,r2,1
  400190:	e0bffd15 	stw	r2,-12(fp)
  400194:	003fe106 	br	40011c <__alt_data_end+0xfd40011c>
  400198:	e0bffb15 	stw	r2,-20(fp)
  40019c:	e0bffb17 	ldw	r2,-20(fp)
  4001a0:	103fdb1e 	bne	r2,zero,400110 <__alt_data_end+0xfd400110>
  4001a4:	0001883a 	nop
  4001a8:	e037883a 	mov	sp,fp
  4001ac:	dfc00117 	ldw	ra,4(sp)
  4001b0:	df000017 	ldw	fp,0(sp)
  4001b4:	dec00204 	addi	sp,sp,8
  4001b8:	f800283a 	ret

Disassembly of section .text:

0200019c <_start>:
 200019c:	00820014 	movui	r2,2048
 20001a0:	10000033 	initd	0(r2)
 20001a4:	10bff804 	addi	r2,r2,-32
 20001a8:	00bffd16 	blt	zero,r2,20001a0 <__alt_data_end+0xff0001a0>
 20001ac:	06c0c034 	movhi	sp,768
 20001b0:	dec00014 	ori	sp,sp,0
 20001b4:	068081f4 	movhi	gp,519
 20001b8:	d6a36614 	ori	gp,gp,36248
 20001bc:	008081f4 	movhi	r2,519
 20001c0:	10839014 	ori	r2,r2,3648
 20001c4:	00c081f4 	movhi	r3,519
 20001c8:	18f35d14 	ori	r3,r3,52596
 20001cc:	10c00326 	beq	r2,r3,20001dc <_start+0x40>
 20001d0:	10000015 	stw	zero,0(r2)
 20001d4:	10800104 	addi	r2,r2,4
 20001d8:	10fffd36 	bltu	r2,r3,20001d0 <__alt_data_end+0xff0001d0>
 20001dc:	2043eb00 	call	2043eb0 <alt_load>
 20001e0:	20440540 	call	2044054 <alt_main>

020001e4 <alt_after_alt_main>:
 20001e4:	003fff06 	br	20001e4 <__alt_data_end+0xff0001e4>

020001e8 <get_bit_state>:
 20001e8:	defffd04 	addi	sp,sp,-12
 20001ec:	df000215 	stw	fp,8(sp)
 20001f0:	df000204 	addi	fp,sp,8
 20001f4:	e13ffe15 	stw	r4,-8(fp)
 20001f8:	e17fff15 	stw	r5,-4(fp)
 20001fc:	e0bffe17 	ldw	r2,-8(fp)
 2000200:	10800037 	ldwio	r2,0(r2)
 2000204:	1007883a 	mov	r3,r2
 2000208:	e0bfff17 	ldw	r2,-4(fp)
 200020c:	1886703a 	and	r3,r3,r2
 2000210:	e0bfff17 	ldw	r2,-4(fp)
 2000214:	1885003a 	cmpeq	r2,r3,r2
 2000218:	e037883a 	mov	sp,fp
 200021c:	df000017 	ldw	fp,0(sp)
 2000220:	dec00104 	addi	sp,sp,4
 2000224:	f800283a 	ret

02000228 <set_bit_state>:
 2000228:	defffb04 	addi	sp,sp,-20
 200022c:	df000415 	stw	fp,16(sp)
 2000230:	df000404 	addi	fp,sp,16
 2000234:	e13ffd15 	stw	r4,-12(fp)
 2000238:	e17ffe15 	stw	r5,-8(fp)
 200023c:	3005883a 	mov	r2,r6
 2000240:	e0bfff05 	stb	r2,-4(fp)
 2000244:	e0bffd17 	ldw	r2,-12(fp)
 2000248:	10800037 	ldwio	r2,0(r2)
 200024c:	e0bffc15 	stw	r2,-16(fp)
 2000250:	e0bfff03 	ldbu	r2,-4(fp)
 2000254:	10000526 	beq	r2,zero,200026c <set_bit_state+0x44>
 2000258:	e0fffc17 	ldw	r3,-16(fp)
 200025c:	e0bffe17 	ldw	r2,-8(fp)
 2000260:	1884b03a 	or	r2,r3,r2
 2000264:	e0bffc15 	stw	r2,-16(fp)
 2000268:	00000506 	br	2000280 <set_bit_state+0x58>
 200026c:	e0bffe17 	ldw	r2,-8(fp)
 2000270:	0084303a 	nor	r2,zero,r2
 2000274:	e0fffc17 	ldw	r3,-16(fp)
 2000278:	1884703a 	and	r2,r3,r2
 200027c:	e0bffc15 	stw	r2,-16(fp)
 2000280:	e0bffd17 	ldw	r2,-12(fp)
 2000284:	e0fffc17 	ldw	r3,-16(fp)
 2000288:	10c00035 	stwio	r3,0(r2)
 200028c:	e037883a 	mov	sp,fp
 2000290:	df000017 	ldw	fp,0(sp)
 2000294:	dec00104 	addi	sp,sp,4
 2000298:	f800283a 	ret

0200029c <float_compare>:
 200029c:	defffa04 	addi	sp,sp,-24
 20002a0:	dfc00515 	stw	ra,20(sp)
 20002a4:	df000415 	stw	fp,16(sp)
 20002a8:	df000404 	addi	fp,sp,16
 20002ac:	e13ffd15 	stw	r4,-12(fp)
 20002b0:	e17ffe15 	stw	r5,-8(fp)
 20002b4:	e1bfff15 	stw	r6,-4(fp)
 20002b8:	e13ffd17 	ldw	r4,-12(fp)
 20002bc:	e17ffe17 	ldw	r5,-8(fp)
 20002c0:	20308a40 	call	20308a4 <__subsf3>
 20002c4:	1007883a 	mov	r3,r2
 20002c8:	e0fffc15 	stw	r3,-16(fp)
 20002cc:	e0fffc17 	ldw	r3,-16(fp)
 20002d0:	00a00034 	movhi	r2,32768
 20002d4:	10bfffc4 	addi	r2,r2,-1
 20002d8:	1884703a 	and	r2,r3,r2
 20002dc:	1009883a 	mov	r4,r2
 20002e0:	e17fff17 	ldw	r5,-4(fp)
 20002e4:	20303c80 	call	20303c8 <__lesf2>
 20002e8:	1000020e 	bge	r2,zero,20002f4 <float_compare+0x58>
 20002ec:	0005883a 	mov	r2,zero
 20002f0:	00000f06 	br	2000330 <float_compare+0x94>
 20002f4:	e13ffc17 	ldw	r4,-16(fp)
 20002f8:	e17fff17 	ldw	r5,-4(fp)
 20002fc:	20303100 	call	2030310 <__gesf2>
 2000300:	0080020e 	bge	zero,r2,200030c <float_compare+0x70>
 2000304:	00800044 	movi	r2,1
 2000308:	00000906 	br	2000330 <float_compare+0x94>
 200030c:	e0bffc17 	ldw	r2,-16(fp)
 2000310:	10a0003c 	xorhi	r2,r2,32768
 2000314:	1009883a 	mov	r4,r2
 2000318:	e17fff17 	ldw	r5,-4(fp)
 200031c:	20303100 	call	2030310 <__gesf2>
 2000320:	0080020e 	bge	zero,r2,200032c <float_compare+0x90>
 2000324:	00800084 	movi	r2,2
 2000328:	00000106 	br	2000330 <float_compare+0x94>
 200032c:	00bfffc4 	movi	r2,-1
 2000330:	e037883a 	mov	sp,fp
 2000334:	dfc00117 	ldw	ra,4(sp)
 2000338:	df000017 	ldw	fp,0(sp)
 200033c:	dec00204 	addi	sp,sp,8
 2000340:	f800283a 	ret

02000344 <float_compare_lt>:
 2000344:	defffb04 	addi	sp,sp,-20
 2000348:	dfc00415 	stw	ra,16(sp)
 200034c:	df000315 	stw	fp,12(sp)
 2000350:	df000304 	addi	fp,sp,12
 2000354:	e13ffd15 	stw	r4,-12(fp)
 2000358:	e17ffe15 	stw	r5,-8(fp)
 200035c:	e1bfff15 	stw	r6,-4(fp)
 2000360:	e13ffe17 	ldw	r4,-8(fp)
 2000364:	e17ffd17 	ldw	r5,-12(fp)
 2000368:	20308a40 	call	20308a4 <__subsf3>
 200036c:	1007883a 	mov	r3,r2
 2000370:	1805883a 	mov	r2,r3
 2000374:	1009883a 	mov	r4,r2
 2000378:	e17fff17 	ldw	r5,-4(fp)
 200037c:	20303100 	call	2030310 <__gesf2>
 2000380:	0080020e 	bge	zero,r2,200038c <float_compare_lt+0x48>
 2000384:	00800044 	movi	r2,1
 2000388:	00000106 	br	2000390 <float_compare_lt+0x4c>
 200038c:	0005883a 	mov	r2,zero
 2000390:	e037883a 	mov	sp,fp
 2000394:	dfc00117 	ldw	ra,4(sp)
 2000398:	df000017 	ldw	fp,0(sp)
 200039c:	dec00204 	addi	sp,sp,8
 20003a0:	f800283a 	ret

020003a4 <float_compare_gt>:
 20003a4:	defffb04 	addi	sp,sp,-20
 20003a8:	dfc00415 	stw	ra,16(sp)
 20003ac:	df000315 	stw	fp,12(sp)
 20003b0:	df000304 	addi	fp,sp,12
 20003b4:	e13ffd15 	stw	r4,-12(fp)
 20003b8:	e17ffe15 	stw	r5,-8(fp)
 20003bc:	e1bfff15 	stw	r6,-4(fp)
 20003c0:	e13ffd17 	ldw	r4,-12(fp)
 20003c4:	e17ffe17 	ldw	r5,-8(fp)
 20003c8:	20308a40 	call	20308a4 <__subsf3>
 20003cc:	1007883a 	mov	r3,r2
 20003d0:	1805883a 	mov	r2,r3
 20003d4:	1009883a 	mov	r4,r2
 20003d8:	e17fff17 	ldw	r5,-4(fp)
 20003dc:	20303100 	call	2030310 <__gesf2>
 20003e0:	0080020e 	bge	zero,r2,20003ec <float_compare_gt+0x48>
 20003e4:	00800044 	movi	r2,1
 20003e8:	00000106 	br	20003f0 <float_compare_gt+0x4c>
 20003ec:	0005883a 	mov	r2,zero
 20003f0:	e037883a 	mov	sp,fp
 20003f4:	dfc00117 	ldw	ra,4(sp)
 20003f8:	df000017 	ldw	fp,0(sp)
 20003fc:	dec00204 	addi	sp,sp,8
 2000400:	f800283a 	ret

02000404 <float_compare_equal>:
 2000404:	defffb04 	addi	sp,sp,-20
 2000408:	dfc00415 	stw	ra,16(sp)
 200040c:	df000315 	stw	fp,12(sp)
 2000410:	df000304 	addi	fp,sp,12
 2000414:	e13ffd15 	stw	r4,-12(fp)
 2000418:	e17ffe15 	stw	r5,-8(fp)
 200041c:	e1bfff15 	stw	r6,-4(fp)
 2000420:	e13ffd17 	ldw	r4,-12(fp)
 2000424:	e17ffe17 	ldw	r5,-8(fp)
 2000428:	20308a40 	call	20308a4 <__subsf3>
 200042c:	1009883a 	mov	r4,r2
 2000430:	2007883a 	mov	r3,r4
 2000434:	00a00034 	movhi	r2,32768
 2000438:	10bfffc4 	addi	r2,r2,-1
 200043c:	1884703a 	and	r2,r3,r2
 2000440:	1009883a 	mov	r4,r2
 2000444:	e17fff17 	ldw	r5,-4(fp)
 2000448:	20303c80 	call	20303c8 <__lesf2>
 200044c:	1000020e 	bge	r2,zero,2000458 <float_compare_equal+0x54>
 2000450:	00800044 	movi	r2,1
 2000454:	00000106 	br	200045c <float_compare_equal+0x58>
 2000458:	0005883a 	mov	r2,zero
 200045c:	e037883a 	mov	sp,fp
 2000460:	dfc00117 	ldw	ra,4(sp)
 2000464:	df000017 	ldw	fp,0(sp)
 2000468:	dec00204 	addi	sp,sp,8
 200046c:	f800283a 	ret

02000470 <profile_set_default>:
 2000470:	defffd04 	addi	sp,sp,-12
 2000474:	dfc00215 	stw	ra,8(sp)
 2000478:	df000115 	stw	fp,4(sp)
 200047c:	df000104 	addi	fp,sp,4
 2000480:	e13fff15 	stw	r4,-4(fp)
 2000484:	e13fff17 	ldw	r4,-4(fp)
 2000488:	20283880 	call	2028388 <KURS_profile_set_default>
 200048c:	e037883a 	mov	sp,fp
 2000490:	dfc00117 	ldw	ra,4(sp)
 2000494:	df000017 	ldw	fp,0(sp)
 2000498:	dec00204 	addi	sp,sp,8
 200049c:	f800283a 	ret
 20004a0:	defffe04 	addi	sp,sp,-8
 20004a4:	df000115 	stw	fp,4(sp)
 20004a8:	df000104 	addi	fp,sp,4
 20004ac:	e13fff15 	stw	r4,-4(fp)
 20004b0:	e037883a 	mov	sp,fp
 20004b4:	df000017 	ldw	fp,0(sp)
 20004b8:	dec00104 	addi	sp,sp,4
 20004bc:	f800283a 	ret

020004c0 <profile_init>:
 20004c0:	defffe04 	addi	sp,sp,-8
 20004c4:	dfc00115 	stw	ra,4(sp)
 20004c8:	df000015 	stw	fp,0(sp)
 20004cc:	d839883a 	mov	fp,sp
 20004d0:	20280d80 	call	20280d8 <KURS_profile_init>
 20004d4:	e037883a 	mov	sp,fp
 20004d8:	dfc00117 	ldw	ra,4(sp)
 20004dc:	df000017 	ldw	fp,0(sp)
 20004e0:	dec00204 	addi	sp,sp,8
 20004e4:	f800283a 	ret
 20004e8:	deffff04 	addi	sp,sp,-4
 20004ec:	df000015 	stw	fp,0(sp)
 20004f0:	d839883a 	mov	fp,sp
 20004f4:	e037883a 	mov	sp,fp
 20004f8:	df000017 	ldw	fp,0(sp)
 20004fc:	dec00104 	addi	sp,sp,4
 2000500:	f800283a 	ret
 2000504:	deffff04 	addi	sp,sp,-4
 2000508:	df000015 	stw	fp,0(sp)
 200050c:	d839883a 	mov	fp,sp
 2000510:	e037883a 	mov	sp,fp
 2000514:	df000017 	ldw	fp,0(sp)
 2000518:	dec00104 	addi	sp,sp,4
 200051c:	f800283a 	ret

02000520 <profile_save_prefs>:
 2000520:	deffff04 	addi	sp,sp,-4
 2000524:	df000015 	stw	fp,0(sp)
 2000528:	d839883a 	mov	fp,sp
 200052c:	008081f4 	movhi	r2,519
 2000530:	10839904 	addi	r2,r2,3684
 2000534:	00c00044 	movi	r3,1
 2000538:	10c00005 	stb	r3,0(r2)
 200053c:	e037883a 	mov	sp,fp
 2000540:	df000017 	ldw	fp,0(sp)
 2000544:	dec00104 	addi	sp,sp,4
 2000548:	f800283a 	ret

0200054c <HandleKursRdDeviceClass>:
 200054c:	defffa04 	addi	sp,sp,-24
 2000550:	dfc00515 	stw	ra,20(sp)
 2000554:	df000415 	stw	fp,16(sp)
 2000558:	df000404 	addi	fp,sp,16
 200055c:	e13ffd15 	stw	r4,-12(fp)
 2000560:	e17ffe15 	stw	r5,-8(fp)
 2000564:	e1bfff15 	stw	r6,-4(fp)
 2000568:	e0bffe17 	ldw	r2,-8(fp)
 200056c:	e0bffc15 	stw	r2,-16(fp)
 2000570:	e0bffd17 	ldw	r2,-12(fp)
 2000574:	10c00003 	ldbu	r3,0(r2)
 2000578:	e0bffc17 	ldw	r2,-16(fp)
 200057c:	10c00005 	stb	r3,0(r2)
 2000580:	e0bffc17 	ldw	r2,-16(fp)
 2000584:	10800044 	addi	r2,r2,1
 2000588:	e0fffd17 	ldw	r3,-12(fp)
 200058c:	18c00043 	ldbu	r3,1(r3)
 2000590:	10c00005 	stb	r3,0(r2)
 2000594:	e0bffc17 	ldw	r2,-16(fp)
 2000598:	10800084 	addi	r2,r2,2
 200059c:	e0bffc15 	stw	r2,-16(fp)
 20005a0:	e13ffc17 	ldw	r4,-16(fp)
 20005a4:	01408174 	movhi	r5,517
 20005a8:	29616804 	addi	r5,r5,-31328
 20005ac:	018081b4 	movhi	r6,518
 20005b0:	31ad3784 	addi	r6,r6,-19234
 20005b4:	20347b80 	call	20347b8 <sprintf>
 20005b8:	1007883a 	mov	r3,r2
 20005bc:	e0bffc17 	ldw	r2,-16(fp)
 20005c0:	10c5883a 	add	r2,r2,r3
 20005c4:	e0bffc15 	stw	r2,-16(fp)
 20005c8:	e0fffc17 	ldw	r3,-16(fp)
 20005cc:	e0bffe17 	ldw	r2,-8(fp)
 20005d0:	1887c83a 	sub	r3,r3,r2
 20005d4:	e0bfff17 	ldw	r2,-4(fp)
 20005d8:	10c00015 	stw	r3,0(r2)
 20005dc:	e037883a 	mov	sp,fp
 20005e0:	dfc00117 	ldw	ra,4(sp)
 20005e4:	df000017 	ldw	fp,0(sp)
 20005e8:	dec00204 	addi	sp,sp,8
 20005ec:	f800283a 	ret

020005f0 <HandleKursEnableSetParams>:
 20005f0:	defffb04 	addi	sp,sp,-20
 20005f4:	df000415 	stw	fp,16(sp)
 20005f8:	df000404 	addi	fp,sp,16
 20005fc:	e13ffd15 	stw	r4,-12(fp)
 2000600:	e17ffe15 	stw	r5,-8(fp)
 2000604:	e1bfff15 	stw	r6,-4(fp)
 2000608:	e0bffe17 	ldw	r2,-8(fp)
 200060c:	e0bffc15 	stw	r2,-16(fp)
 2000610:	e0bffd17 	ldw	r2,-12(fp)
 2000614:	10c00003 	ldbu	r3,0(r2)
 2000618:	e0bffc17 	ldw	r2,-16(fp)
 200061c:	10c00005 	stb	r3,0(r2)
 2000620:	e0bffc17 	ldw	r2,-16(fp)
 2000624:	10800044 	addi	r2,r2,1
 2000628:	e0fffd17 	ldw	r3,-12(fp)
 200062c:	18c00043 	ldbu	r3,1(r3)
 2000630:	10c00005 	stb	r3,0(r2)
 2000634:	e0bffc17 	ldw	r2,-16(fp)
 2000638:	10800084 	addi	r2,r2,2
 200063c:	e0bffc15 	stw	r2,-16(fp)
 2000640:	e0bffd17 	ldw	r2,-12(fp)
 2000644:	10800084 	addi	r2,r2,2
 2000648:	e0bffd15 	stw	r2,-12(fp)
 200064c:	008081b4 	movhi	r2,518
 2000650:	10ad3504 	addi	r2,r2,-19244
 2000654:	00c00044 	movi	r3,1
 2000658:	10c01905 	stb	r3,100(r2)
 200065c:	e0bffc17 	ldw	r2,-16(fp)
 2000660:	00c013c4 	movi	r3,79
 2000664:	10c00005 	stb	r3,0(r2)
 2000668:	00c012c4 	movi	r3,75
 200066c:	10c00045 	stb	r3,1(r2)
 2000670:	00c00344 	movi	r3,13
 2000674:	10c00085 	stb	r3,2(r2)
 2000678:	100000c5 	stb	zero,3(r2)
 200067c:	008000c4 	movi	r2,3
 2000680:	1007883a 	mov	r3,r2
 2000684:	e0bffc17 	ldw	r2,-16(fp)
 2000688:	10c5883a 	add	r2,r2,r3
 200068c:	e0bffc15 	stw	r2,-16(fp)
 2000690:	e0fffc17 	ldw	r3,-16(fp)
 2000694:	e0bffe17 	ldw	r2,-8(fp)
 2000698:	1887c83a 	sub	r3,r3,r2
 200069c:	e0bfff17 	ldw	r2,-4(fp)
 20006a0:	10c00015 	stw	r3,0(r2)
 20006a4:	e037883a 	mov	sp,fp
 20006a8:	df000017 	ldw	fp,0(sp)
 20006ac:	dec00104 	addi	sp,sp,4
 20006b0:	f800283a 	ret

020006b4 <HandleKursRdProfile>:
 20006b4:	defff904 	addi	sp,sp,-28
 20006b8:	dfc00615 	stw	ra,24(sp)
 20006bc:	df000515 	stw	fp,20(sp)
 20006c0:	df000504 	addi	fp,sp,20
 20006c4:	e13ffd15 	stw	r4,-12(fp)
 20006c8:	e17ffe15 	stw	r5,-8(fp)
 20006cc:	e1bfff15 	stw	r6,-4(fp)
 20006d0:	e0bffe17 	ldw	r2,-8(fp)
 20006d4:	e0bffb15 	stw	r2,-20(fp)
 20006d8:	e0bffd17 	ldw	r2,-12(fp)
 20006dc:	10c00003 	ldbu	r3,0(r2)
 20006e0:	e0bffb17 	ldw	r2,-20(fp)
 20006e4:	10c00005 	stb	r3,0(r2)
 20006e8:	e0bffb17 	ldw	r2,-20(fp)
 20006ec:	10800044 	addi	r2,r2,1
 20006f0:	e0fffd17 	ldw	r3,-12(fp)
 20006f4:	18c00043 	ldbu	r3,1(r3)
 20006f8:	10c00005 	stb	r3,0(r2)
 20006fc:	e0bffb17 	ldw	r2,-20(fp)
 2000700:	10800084 	addi	r2,r2,2
 2000704:	e0bffb15 	stw	r2,-20(fp)
 2000708:	e0bffd17 	ldw	r2,-12(fp)
 200070c:	10800084 	addi	r2,r2,2
 2000710:	1009883a 	mov	r4,r2
 2000714:	017fffc4 	movi	r5,-1
 2000718:	2004a000 	call	2004a00 <StrToU32Def>
 200071c:	e0bffc15 	stw	r2,-16(fp)
 2000720:	e0bffc17 	ldw	r2,-16(fp)
 2000724:	10000f1e 	bne	r2,zero,2000764 <HandleKursRdProfile+0xb0>
 2000728:	008081b4 	movhi	r2,518
 200072c:	10ad3504 	addi	r2,r2,-19244
 2000730:	1080210b 	ldhu	r2,132(r2)
 2000734:	10bfffcc 	andi	r2,r2,65535
 2000738:	e13ffb17 	ldw	r4,-20(fp)
 200073c:	01408174 	movhi	r5,517
 2000740:	29616904 	addi	r5,r5,-31324
 2000744:	e1bffc17 	ldw	r6,-16(fp)
 2000748:	100f883a 	mov	r7,r2
 200074c:	20347b80 	call	20347b8 <sprintf>
 2000750:	1007883a 	mov	r3,r2
 2000754:	e0bffb17 	ldw	r2,-20(fp)
 2000758:	10c5883a 	add	r2,r2,r3
 200075c:	e0bffb15 	stw	r2,-20(fp)
 2000760:	00002a06 	br	200080c <HandleKursRdProfile+0x158>
 2000764:	008081b4 	movhi	r2,518
 2000768:	10ad3504 	addi	r2,r2,-19244
 200076c:	1080210b 	ldhu	r2,132(r2)
 2000770:	10ffffcc 	andi	r3,r2,65535
 2000774:	e0bffc17 	ldw	r2,-16(fp)
 2000778:	18801416 	blt	r3,r2,20007cc <HandleKursRdProfile+0x118>
 200077c:	008081b4 	movhi	r2,518
 2000780:	10ad3504 	addi	r2,r2,-19244
 2000784:	10c02017 	ldw	r3,128(r2)
 2000788:	e0bffc17 	ldw	r2,-16(fp)
 200078c:	1085883a 	add	r2,r2,r2
 2000790:	1085883a 	add	r2,r2,r2
 2000794:	10bfff04 	addi	r2,r2,-4
 2000798:	1885883a 	add	r2,r3,r2
 200079c:	10800017 	ldw	r2,0(r2)
 20007a0:	e13ffb17 	ldw	r4,-20(fp)
 20007a4:	01408174 	movhi	r5,517
 20007a8:	29616b04 	addi	r5,r5,-31316
 20007ac:	e1bffc17 	ldw	r6,-16(fp)
 20007b0:	100f883a 	mov	r7,r2
 20007b4:	20347b80 	call	20347b8 <sprintf>
 20007b8:	1007883a 	mov	r3,r2
 20007bc:	e0bffb17 	ldw	r2,-20(fp)
 20007c0:	10c5883a 	add	r2,r2,r3
 20007c4:	e0bffb15 	stw	r2,-20(fp)
 20007c8:	00001006 	br	200080c <HandleKursRdProfile+0x158>
 20007cc:	e0bffb17 	ldw	r2,-20(fp)
 20007d0:	00c00c04 	movi	r3,48
 20007d4:	10c00005 	stb	r3,0(r2)
 20007d8:	00c00ec4 	movi	r3,59
 20007dc:	10c00045 	stb	r3,1(r2)
 20007e0:	00c01384 	movi	r3,78
 20007e4:	10c00085 	stb	r3,2(r2)
 20007e8:	00c01044 	movi	r3,65
 20007ec:	10c000c5 	stb	r3,3(r2)
 20007f0:	10000105 	stb	zero,4(r2)
 20007f4:	e13ffb17 	ldw	r4,-20(fp)
 20007f8:	2034a180 	call	2034a18 <strlen>
 20007fc:	1007883a 	mov	r3,r2
 2000800:	e0bffb17 	ldw	r2,-20(fp)
 2000804:	10c5883a 	add	r2,r2,r3
 2000808:	e0bffb15 	stw	r2,-20(fp)
 200080c:	e0bffb17 	ldw	r2,-20(fp)
 2000810:	10c00044 	addi	r3,r2,1
 2000814:	e0fffb15 	stw	r3,-20(fp)
 2000818:	00c00ec4 	movi	r3,59
 200081c:	10c00005 	stb	r3,0(r2)
 2000820:	10000045 	stb	zero,1(r2)
 2000824:	e0fffb17 	ldw	r3,-20(fp)
 2000828:	e0bffe17 	ldw	r2,-8(fp)
 200082c:	1885c83a 	sub	r2,r3,r2
 2000830:	10bfffcc 	andi	r2,r2,65535
 2000834:	e13ffe17 	ldw	r4,-8(fp)
 2000838:	100b883a 	mov	r5,r2
 200083c:	2005a080 	call	2005a08 <get_crc16_ascii>
 2000840:	10bfffcc 	andi	r2,r2,65535
 2000844:	e13ffb17 	ldw	r4,-20(fp)
 2000848:	01408174 	movhi	r5,517
 200084c:	29616d04 	addi	r5,r5,-31308
 2000850:	100d883a 	mov	r6,r2
 2000854:	20347b80 	call	20347b8 <sprintf>
 2000858:	1007883a 	mov	r3,r2
 200085c:	e0bffb17 	ldw	r2,-20(fp)
 2000860:	10c5883a 	add	r2,r2,r3
 2000864:	e0bffb15 	stw	r2,-20(fp)
 2000868:	e0fffb17 	ldw	r3,-20(fp)
 200086c:	e0bffe17 	ldw	r2,-8(fp)
 2000870:	1887c83a 	sub	r3,r3,r2
 2000874:	e0bfff17 	ldw	r2,-4(fp)
 2000878:	10c00015 	stw	r3,0(r2)
 200087c:	e037883a 	mov	sp,fp
 2000880:	dfc00117 	ldw	ra,4(sp)
 2000884:	df000017 	ldw	fp,0(sp)
 2000888:	dec00204 	addi	sp,sp,8
 200088c:	f800283a 	ret

02000890 <HandleKursRdStrValueAndColor>:
 2000890:	defff404 	addi	sp,sp,-48
 2000894:	dfc00b15 	stw	ra,44(sp)
 2000898:	df000a15 	stw	fp,40(sp)
 200089c:	df000a04 	addi	fp,sp,40
 20008a0:	e13ffd15 	stw	r4,-12(fp)
 20008a4:	e17ffe15 	stw	r5,-8(fp)
 20008a8:	e1bfff15 	stw	r6,-4(fp)
 20008ac:	e03ffa15 	stw	zero,-24(fp)
 20008b0:	e03ff615 	stw	zero,-40(fp)
 20008b4:	e03ff715 	stw	zero,-36(fp)
 20008b8:	e03ffb0d 	sth	zero,-20(fp)
 20008bc:	e0bffe17 	ldw	r2,-8(fp)
 20008c0:	e0bff815 	stw	r2,-32(fp)
 20008c4:	e03ff90d 	sth	zero,-28(fp)
 20008c8:	e0bffd17 	ldw	r2,-12(fp)
 20008cc:	10c00003 	ldbu	r3,0(r2)
 20008d0:	e0bff817 	ldw	r2,-32(fp)
 20008d4:	10c00005 	stb	r3,0(r2)
 20008d8:	e0bff817 	ldw	r2,-32(fp)
 20008dc:	10800044 	addi	r2,r2,1
 20008e0:	e0fffd17 	ldw	r3,-12(fp)
 20008e4:	18c00043 	ldbu	r3,1(r3)
 20008e8:	10c00005 	stb	r3,0(r2)
 20008ec:	e0bff817 	ldw	r2,-32(fp)
 20008f0:	10800084 	addi	r2,r2,2
 20008f4:	e0bff815 	stw	r2,-32(fp)
 20008f8:	e0bffd17 	ldw	r2,-12(fp)
 20008fc:	10800044 	addi	r2,r2,1
 2000900:	10800003 	ldbu	r2,0(r2)
 2000904:	10803fcc 	andi	r2,r2,255
 2000908:	1080201c 	xori	r2,r2,128
 200090c:	10bfe004 	addi	r2,r2,-128
 2000910:	10801de0 	cmpeqi	r2,r2,119
 2000914:	e0bffb85 	stb	r2,-18(fp)
 2000918:	e0bffd17 	ldw	r2,-12(fp)
 200091c:	10800084 	addi	r2,r2,2
 2000920:	1009883a 	mov	r4,r2
 2000924:	017fffc4 	movi	r5,-1
 2000928:	2004a000 	call	2004a00 <StrToU32Def>
 200092c:	e0bffa15 	stw	r2,-24(fp)
 2000930:	e0bffa17 	ldw	r2,-24(fp)
 2000934:	10bfffd8 	cmpnei	r2,r2,-1
 2000938:	1000031e 	bne	r2,zero,2000948 <HandleKursRdStrValueAndColor+0xb8>
 200093c:	e0bfff17 	ldw	r2,-4(fp)
 2000940:	10000015 	stw	zero,0(r2)
 2000944:	00011506 	br	2000d9c <HandleKursRdStrValueAndColor+0x50c>
 2000948:	e03ff615 	stw	zero,-40(fp)
 200094c:	e0bffa17 	ldw	r2,-24(fp)
 2000950:	10001a26 	beq	r2,zero,20009bc <HandleKursRdStrValueAndColor+0x12c>
 2000954:	e0bffa17 	ldw	r2,-24(fp)
 2000958:	10800248 	cmpgei	r2,r2,9
 200095c:	1000171e 	bne	r2,zero,20009bc <HandleKursRdStrValueAndColor+0x12c>
 2000960:	e0bffa17 	ldw	r2,-24(fp)
 2000964:	10ffffc4 	addi	r3,r2,-1
 2000968:	008081b4 	movhi	r2,518
 200096c:	10ad3504 	addi	r2,r2,-19244
 2000970:	18c001c4 	addi	r3,r3,7
 2000974:	18c7883a 	add	r3,r3,r3
 2000978:	18c7883a 	add	r3,r3,r3
 200097c:	10c5883a 	add	r2,r2,r3
 2000980:	10800017 	ldw	r2,0(r2)
 2000984:	10000d26 	beq	r2,zero,20009bc <HandleKursRdStrValueAndColor+0x12c>
 2000988:	e0bffa17 	ldw	r2,-24(fp)
 200098c:	10ffffc4 	addi	r3,r2,-1
 2000990:	008081b4 	movhi	r2,518
 2000994:	10ad3504 	addi	r2,r2,-19244
 2000998:	18c00984 	addi	r3,r3,38
 200099c:	18c7883a 	add	r3,r3,r3
 20009a0:	10c5883a 	add	r2,r2,r3
 20009a4:	1080000b 	ldhu	r2,0(r2)
 20009a8:	10bfffcc 	andi	r2,r2,65535
 20009ac:	10000326 	beq	r2,zero,20009bc <HandleKursRdStrValueAndColor+0x12c>
 20009b0:	e0bffa17 	ldw	r2,-24(fp)
 20009b4:	10bfffc4 	addi	r2,r2,-1
 20009b8:	e0bff615 	stw	r2,-40(fp)
 20009bc:	e0bffa17 	ldw	r2,-24(fp)
 20009c0:	10801910 	cmplti	r2,r2,100
 20009c4:	10001a1e 	bne	r2,zero,2000a30 <HandleKursRdStrValueAndColor+0x1a0>
 20009c8:	e0bffa17 	ldw	r2,-24(fp)
 20009cc:	10801a08 	cmpgei	r2,r2,104
 20009d0:	1000171e 	bne	r2,zero,2000a30 <HandleKursRdStrValueAndColor+0x1a0>
 20009d4:	e0bffa17 	ldw	r2,-24(fp)
 20009d8:	10ffe904 	addi	r3,r2,-92
 20009dc:	008081b4 	movhi	r2,518
 20009e0:	10ad3504 	addi	r2,r2,-19244
 20009e4:	18c001c4 	addi	r3,r3,7
 20009e8:	18c7883a 	add	r3,r3,r3
 20009ec:	18c7883a 	add	r3,r3,r3
 20009f0:	10c5883a 	add	r2,r2,r3
 20009f4:	10800017 	ldw	r2,0(r2)
 20009f8:	10000d26 	beq	r2,zero,2000a30 <HandleKursRdStrValueAndColor+0x1a0>
 20009fc:	e0bffa17 	ldw	r2,-24(fp)
 2000a00:	10ffe904 	addi	r3,r2,-92
 2000a04:	008081b4 	movhi	r2,518
 2000a08:	10ad3504 	addi	r2,r2,-19244
 2000a0c:	18c00984 	addi	r3,r3,38
 2000a10:	18c7883a 	add	r3,r3,r3
 2000a14:	10c5883a 	add	r2,r2,r3
 2000a18:	1080000b 	ldhu	r2,0(r2)
 2000a1c:	10bfffcc 	andi	r2,r2,65535
 2000a20:	10000326 	beq	r2,zero,2000a30 <HandleKursRdStrValueAndColor+0x1a0>
 2000a24:	e0bffa17 	ldw	r2,-24(fp)
 2000a28:	10bfe904 	addi	r2,r2,-92
 2000a2c:	e0bff615 	stw	r2,-40(fp)
 2000a30:	008081b4 	movhi	r2,518
 2000a34:	10ad3504 	addi	r2,r2,-19244
 2000a38:	e0fff617 	ldw	r3,-40(fp)
 2000a3c:	18c001c4 	addi	r3,r3,7
 2000a40:	18c7883a 	add	r3,r3,r3
 2000a44:	18c7883a 	add	r3,r3,r3
 2000a48:	10c5883a 	add	r2,r2,r3
 2000a4c:	10800017 	ldw	r2,0(r2)
 2000a50:	e0bff715 	stw	r2,-36(fp)
 2000a54:	008081b4 	movhi	r2,518
 2000a58:	10ad3504 	addi	r2,r2,-19244
 2000a5c:	e0fff617 	ldw	r3,-40(fp)
 2000a60:	18c00984 	addi	r3,r3,38
 2000a64:	18c7883a 	add	r3,r3,r3
 2000a68:	10c5883a 	add	r2,r2,r3
 2000a6c:	1080000b 	ldhu	r2,0(r2)
 2000a70:	e0bffb0d 	sth	r2,-20(fp)
 2000a74:	e13ff817 	ldw	r4,-32(fp)
 2000a78:	01408174 	movhi	r5,517
 2000a7c:	29616e04 	addi	r5,r5,-31304
 2000a80:	e1bffa17 	ldw	r6,-24(fp)
 2000a84:	20347b80 	call	20347b8 <sprintf>
 2000a88:	e13ff817 	ldw	r4,-32(fp)
 2000a8c:	2034a180 	call	2034a18 <strlen>
 2000a90:	1007883a 	mov	r3,r2
 2000a94:	e0bff817 	ldw	r2,-32(fp)
 2000a98:	10c5883a 	add	r2,r2,r3
 2000a9c:	e0bff815 	stw	r2,-32(fp)
 2000aa0:	e0bff717 	ldw	r2,-36(fp)
 2000aa4:	10000226 	beq	r2,zero,2000ab0 <HandleKursRdStrValueAndColor+0x220>
 2000aa8:	e0bffb0b 	ldhu	r2,-20(fp)
 2000aac:	10000f1e 	bne	r2,zero,2000aec <HandleKursRdStrValueAndColor+0x25c>
 2000ab0:	e0bff817 	ldw	r2,-32(fp)
 2000ab4:	00c00ec4 	movi	r3,59
 2000ab8:	10c00005 	stb	r3,0(r2)
 2000abc:	00c01384 	movi	r3,78
 2000ac0:	10c00045 	stb	r3,1(r2)
 2000ac4:	00c01044 	movi	r3,65
 2000ac8:	10c00085 	stb	r3,2(r2)
 2000acc:	100000c5 	stb	zero,3(r2)
 2000ad0:	e13ff817 	ldw	r4,-32(fp)
 2000ad4:	2034a180 	call	2034a18 <strlen>
 2000ad8:	1007883a 	mov	r3,r2
 2000adc:	e0bff817 	ldw	r2,-32(fp)
 2000ae0:	10c5883a 	add	r2,r2,r3
 2000ae4:	e0bff815 	stw	r2,-32(fp)
 2000ae8:	00009006 	br	2000d2c <HandleKursRdStrValueAndColor+0x49c>
 2000aec:	e0bffa17 	ldw	r2,-24(fp)
 2000af0:	10800098 	cmpnei	r2,r2,2
 2000af4:	1000021e 	bne	r2,zero,2000b00 <HandleKursRdStrValueAndColor+0x270>
 2000af8:	e0bffb87 	ldb	r2,-18(fp)
 2000afc:	1000261e 	bne	r2,zero,2000b98 <HandleKursRdStrValueAndColor+0x308>
 2000b00:	e03ff90d 	sth	zero,-28(fp)
 2000b04:	e03ff90d 	sth	zero,-28(fp)
 2000b08:	00001f06 	br	2000b88 <HandleKursRdStrValueAndColor+0x2f8>
 2000b0c:	e0bff817 	ldw	r2,-32(fp)
 2000b10:	10c00044 	addi	r3,r2,1
 2000b14:	e0fff815 	stw	r3,-32(fp)
 2000b18:	00c00ec4 	movi	r3,59
 2000b1c:	10c00005 	stb	r3,0(r2)
 2000b20:	10000045 	stb	zero,1(r2)
 2000b24:	e0bff717 	ldw	r2,-36(fp)
 2000b28:	10800103 	ldbu	r2,4(r2)
 2000b2c:	10803fcc 	andi	r2,r2,255
 2000b30:	1080201c 	xori	r2,r2,128
 2000b34:	10bfe004 	addi	r2,r2,-128
 2000b38:	10000426 	beq	r2,zero,2000b4c <HandleKursRdStrValueAndColor+0x2bc>
 2000b3c:	010081b4 	movhi	r4,518
 2000b40:	212d3504 	addi	r4,r4,-19244
 2000b44:	e17ff717 	ldw	r5,-36(fp)
 2000b48:	20037b40 	call	20037b4 <profile_userget_value>
 2000b4c:	010081b4 	movhi	r4,518
 2000b50:	212d3504 	addi	r4,r4,-19244
 2000b54:	e17ff717 	ldw	r5,-36(fp)
 2000b58:	e1bff817 	ldw	r6,-32(fp)
 2000b5c:	20027580 	call	2002758 <GetStrParamValueItem>
 2000b60:	10bfffcc 	andi	r2,r2,65535
 2000b64:	e0fff817 	ldw	r3,-32(fp)
 2000b68:	1885883a 	add	r2,r3,r2
 2000b6c:	e0bff815 	stw	r2,-32(fp)
 2000b70:	e0bff90b 	ldhu	r2,-28(fp)
 2000b74:	10800044 	addi	r2,r2,1
 2000b78:	e0bff90d 	sth	r2,-28(fp)
 2000b7c:	e0bff717 	ldw	r2,-36(fp)
 2000b80:	10800904 	addi	r2,r2,36
 2000b84:	e0bff715 	stw	r2,-36(fp)
 2000b88:	e0fff90b 	ldhu	r3,-28(fp)
 2000b8c:	e0bffb0b 	ldhu	r2,-20(fp)
 2000b90:	18bfde36 	bltu	r3,r2,2000b0c <__alt_data_end+0xff000b0c>
 2000b94:	00006506 	br	2000d2c <HandleKursRdStrValueAndColor+0x49c>
 2000b98:	e03ff90d 	sth	zero,-28(fp)
 2000b9c:	e03ff90d 	sth	zero,-28(fp)
 2000ba0:	00005f06 	br	2000d20 <HandleKursRdStrValueAndColor+0x490>
 2000ba4:	e0bff717 	ldw	r2,-36(fp)
 2000ba8:	10800717 	ldw	r2,28(r2)
 2000bac:	e0bffc15 	stw	r2,-16(fp)
 2000bb0:	e0bff817 	ldw	r2,-32(fp)
 2000bb4:	10c00044 	addi	r3,r2,1
 2000bb8:	e0fff815 	stw	r3,-32(fp)
 2000bbc:	00c00ec4 	movi	r3,59
 2000bc0:	10c00005 	stb	r3,0(r2)
 2000bc4:	10000045 	stb	zero,1(r2)
 2000bc8:	e0bff717 	ldw	r2,-36(fp)
 2000bcc:	10800103 	ldbu	r2,4(r2)
 2000bd0:	10803fcc 	andi	r2,r2,255
 2000bd4:	1080201c 	xori	r2,r2,128
 2000bd8:	10bfe004 	addi	r2,r2,-128
 2000bdc:	10000426 	beq	r2,zero,2000bf0 <HandleKursRdStrValueAndColor+0x360>
 2000be0:	010081b4 	movhi	r4,518
 2000be4:	212d3504 	addi	r4,r4,-19244
 2000be8:	e17ff717 	ldw	r5,-36(fp)
 2000bec:	20037b40 	call	20037b4 <profile_userget_value>
 2000bf0:	010081b4 	movhi	r4,518
 2000bf4:	212d3504 	addi	r4,r4,-19244
 2000bf8:	e17ff717 	ldw	r5,-36(fp)
 2000bfc:	e1bff817 	ldw	r6,-32(fp)
 2000c00:	20027580 	call	2002758 <GetStrParamValueItem>
 2000c04:	10bfffcc 	andi	r2,r2,65535
 2000c08:	e0fff817 	ldw	r3,-32(fp)
 2000c0c:	1885883a 	add	r2,r3,r2
 2000c10:	e0bff815 	stw	r2,-32(fp)
 2000c14:	e0bffc17 	ldw	r2,-16(fp)
 2000c18:	10003b26 	beq	r2,zero,2000d08 <HandleKursRdStrValueAndColor+0x478>
 2000c1c:	e0bffc17 	ldw	r2,-16(fp)
 2000c20:	1080000b 	ldhu	r2,0(r2)
 2000c24:	10bfffcc 	andi	r2,r2,65535
 2000c28:	10003726 	beq	r2,zero,2000d08 <HandleKursRdStrValueAndColor+0x478>
 2000c2c:	e0bffc17 	ldw	r2,-16(fp)
 2000c30:	10800183 	ldbu	r2,6(r2)
 2000c34:	10803fcc 	andi	r2,r2,255
 2000c38:	1080201c 	xori	r2,r2,128
 2000c3c:	10bfe004 	addi	r2,r2,-128
 2000c40:	10800218 	cmpnei	r2,r2,8
 2000c44:	10000f1e 	bne	r2,zero,2000c84 <HandleKursRdStrValueAndColor+0x3f4>
 2000c48:	e13ff717 	ldw	r4,-36(fp)
 2000c4c:	2002aa40 	call	2002aa4 <TestProg>
 2000c50:	10803fcc 	andi	r2,r2,255
 2000c54:	1080201c 	xori	r2,r2,128
 2000c58:	10bfe004 	addi	r2,r2,-128
 2000c5c:	e13ff817 	ldw	r4,-32(fp)
 2000c60:	01408174 	movhi	r5,517
 2000c64:	29616f04 	addi	r5,r5,-31300
 2000c68:	100d883a 	mov	r6,r2
 2000c6c:	20347b80 	call	20347b8 <sprintf>
 2000c70:	1007883a 	mov	r3,r2
 2000c74:	e0bff817 	ldw	r2,-32(fp)
 2000c78:	10c5883a 	add	r2,r2,r3
 2000c7c:	e0bff815 	stw	r2,-32(fp)
 2000c80:	00002106 	br	2000d08 <HandleKursRdStrValueAndColor+0x478>
 2000c84:	e0bffc17 	ldw	r2,-16(fp)
 2000c88:	10800183 	ldbu	r2,6(r2)
 2000c8c:	10803fcc 	andi	r2,r2,255
 2000c90:	1080201c 	xori	r2,r2,128
 2000c94:	10bfe004 	addi	r2,r2,-128
 2000c98:	10800258 	cmpnei	r2,r2,9
 2000c9c:	10000e1e 	bne	r2,zero,2000cd8 <HandleKursRdStrValueAndColor+0x448>
 2000ca0:	e13ff717 	ldw	r4,-36(fp)
 2000ca4:	e17ffc17 	ldw	r5,-16(fp)
 2000ca8:	20038e40 	call	20038e4 <user_get_color>
 2000cac:	10bfffcc 	andi	r2,r2,65535
 2000cb0:	e13ff817 	ldw	r4,-32(fp)
 2000cb4:	01408174 	movhi	r5,517
 2000cb8:	29616f04 	addi	r5,r5,-31300
 2000cbc:	100d883a 	mov	r6,r2
 2000cc0:	20347b80 	call	20347b8 <sprintf>
 2000cc4:	1007883a 	mov	r3,r2
 2000cc8:	e0bff817 	ldw	r2,-32(fp)
 2000ccc:	10c5883a 	add	r2,r2,r3
 2000cd0:	e0bff815 	stw	r2,-32(fp)
 2000cd4:	00000c06 	br	2000d08 <HandleKursRdStrValueAndColor+0x478>
 2000cd8:	e0bffc17 	ldw	r2,-16(fp)
 2000cdc:	1080000b 	ldhu	r2,0(r2)
 2000ce0:	10bfffcc 	andi	r2,r2,65535
 2000ce4:	e13ff817 	ldw	r4,-32(fp)
 2000ce8:	01408174 	movhi	r5,517
 2000cec:	29616f04 	addi	r5,r5,-31300
 2000cf0:	100d883a 	mov	r6,r2
 2000cf4:	20347b80 	call	20347b8 <sprintf>
 2000cf8:	1007883a 	mov	r3,r2
 2000cfc:	e0bff817 	ldw	r2,-32(fp)
 2000d00:	10c5883a 	add	r2,r2,r3
 2000d04:	e0bff815 	stw	r2,-32(fp)
 2000d08:	e0bff90b 	ldhu	r2,-28(fp)
 2000d0c:	10800044 	addi	r2,r2,1
 2000d10:	e0bff90d 	sth	r2,-28(fp)
 2000d14:	e0bff717 	ldw	r2,-36(fp)
 2000d18:	10800904 	addi	r2,r2,36
 2000d1c:	e0bff715 	stw	r2,-36(fp)
 2000d20:	e0fff90b 	ldhu	r3,-28(fp)
 2000d24:	e0bffb0b 	ldhu	r2,-20(fp)
 2000d28:	18bf9e36 	bltu	r3,r2,2000ba4 <__alt_data_end+0xff000ba4>
 2000d2c:	e0bff817 	ldw	r2,-32(fp)
 2000d30:	10c00044 	addi	r3,r2,1
 2000d34:	e0fff815 	stw	r3,-32(fp)
 2000d38:	00c00ec4 	movi	r3,59
 2000d3c:	10c00005 	stb	r3,0(r2)
 2000d40:	10000045 	stb	zero,1(r2)
 2000d44:	e0fff817 	ldw	r3,-32(fp)
 2000d48:	e0bffe17 	ldw	r2,-8(fp)
 2000d4c:	1885c83a 	sub	r2,r3,r2
 2000d50:	10bfffcc 	andi	r2,r2,65535
 2000d54:	e13ffe17 	ldw	r4,-8(fp)
 2000d58:	100b883a 	mov	r5,r2
 2000d5c:	2005a080 	call	2005a08 <get_crc16_ascii>
 2000d60:	10bfffcc 	andi	r2,r2,65535
 2000d64:	e13ff817 	ldw	r4,-32(fp)
 2000d68:	01408174 	movhi	r5,517
 2000d6c:	29616d04 	addi	r5,r5,-31308
 2000d70:	100d883a 	mov	r6,r2
 2000d74:	20347b80 	call	20347b8 <sprintf>
 2000d78:	1007883a 	mov	r3,r2
 2000d7c:	e0bff817 	ldw	r2,-32(fp)
 2000d80:	10c5883a 	add	r2,r2,r3
 2000d84:	e0bff815 	stw	r2,-32(fp)
 2000d88:	e0fff817 	ldw	r3,-32(fp)
 2000d8c:	e0bffe17 	ldw	r2,-8(fp)
 2000d90:	1887c83a 	sub	r3,r3,r2
 2000d94:	e0bfff17 	ldw	r2,-4(fp)
 2000d98:	10c00015 	stw	r3,0(r2)
 2000d9c:	e037883a 	mov	sp,fp
 2000da0:	dfc00117 	ldw	ra,4(sp)
 2000da4:	df000017 	ldw	fp,0(sp)
 2000da8:	dec00204 	addi	sp,sp,8
 2000dac:	f800283a 	ret

02000db0 <HandleKursSetParamValue>:
 2000db0:	deffec04 	addi	sp,sp,-80
 2000db4:	dfc01315 	stw	ra,76(sp)
 2000db8:	df001215 	stw	fp,72(sp)
 2000dbc:	df001204 	addi	fp,sp,72
 2000dc0:	e13ff815 	stw	r4,-32(fp)
 2000dc4:	e17ff915 	stw	r5,-28(fp)
 2000dc8:	e1bffa15 	stw	r6,-24(fp)
 2000dcc:	e03ff415 	stw	zero,-48(fp)
 2000dd0:	e03ff515 	stw	zero,-44(fp)
 2000dd4:	e03ff70d 	sth	zero,-36(fp)
 2000dd8:	e03ff78d 	sth	zero,-34(fp)
 2000ddc:	e03fee0d 	sth	zero,-72(fp)
 2000de0:	e03fef15 	stw	zero,-68(fp)
 2000de4:	e03ff015 	stw	zero,-64(fp)
 2000de8:	e03ff115 	stw	zero,-60(fp)
 2000dec:	e03ff20d 	sth	zero,-56(fp)
 2000df0:	e03ff285 	stb	zero,-54(fp)
 2000df4:	e0bff917 	ldw	r2,-28(fp)
 2000df8:	e0bff315 	stw	r2,-52(fp)
 2000dfc:	e13ff817 	ldw	r4,-32(fp)
 2000e00:	01400ec4 	movi	r5,59
 2000e04:	2034c5c0 	call	2034c5c <strrchr>
 2000e08:	e0bff615 	stw	r2,-40(fp)
 2000e0c:	e0bff617 	ldw	r2,-40(fp)
 2000e10:	10001626 	beq	r2,zero,2000e6c <HandleKursSetParamValue+0xbc>
 2000e14:	e0bff617 	ldw	r2,-40(fp)
 2000e18:	10800044 	addi	r2,r2,1
 2000e1c:	e0bff615 	stw	r2,-40(fp)
 2000e20:	e13ff617 	ldw	r4,-40(fp)
 2000e24:	017fffc4 	movi	r5,-1
 2000e28:	2004a000 	call	2004a00 <StrToU32Def>
 2000e2c:	e0bff515 	stw	r2,-44(fp)
 2000e30:	e0fff617 	ldw	r3,-40(fp)
 2000e34:	e0bff817 	ldw	r2,-32(fp)
 2000e38:	1885c83a 	sub	r2,r3,r2
 2000e3c:	10bfffcc 	andi	r2,r2,65535
 2000e40:	e13ff817 	ldw	r4,-32(fp)
 2000e44:	100b883a 	mov	r5,r2
 2000e48:	2005a080 	call	2005a08 <get_crc16_ascii>
 2000e4c:	10bfffcc 	andi	r2,r2,65535
 2000e50:	e0bff415 	stw	r2,-48(fp)
 2000e54:	e0fff517 	ldw	r3,-44(fp)
 2000e58:	e0bff417 	ldw	r2,-48(fp)
 2000e5c:	18800526 	beq	r3,r2,2000e74 <HandleKursSetParamValue+0xc4>
 2000e60:	00800044 	movi	r2,1
 2000e64:	e0bff285 	stb	r2,-54(fp)
 2000e68:	00000206 	br	2000e74 <HandleKursSetParamValue+0xc4>
 2000e6c:	00800044 	movi	r2,1
 2000e70:	e0bff285 	stb	r2,-54(fp)
 2000e74:	e0bff287 	ldb	r2,-54(fp)
 2000e78:	10000a1e 	bne	r2,zero,2000ea4 <HandleKursSetParamValue+0xf4>
 2000e7c:	e0bff817 	ldw	r2,-32(fp)
 2000e80:	10c00084 	addi	r3,r2,2
 2000e84:	e0bff704 	addi	r2,fp,-36
 2000e88:	1809883a 	mov	r4,r3
 2000e8c:	100b883a 	mov	r5,r2
 2000e90:	200411c0 	call	200411c <StrToU16>
 2000e94:	10803fcc 	andi	r2,r2,255
 2000e98:	1080201c 	xori	r2,r2,128
 2000e9c:	10bfe004 	addi	r2,r2,-128
 2000ea0:	1000021e 	bne	r2,zero,2000eac <HandleKursSetParamValue+0xfc>
 2000ea4:	00800044 	movi	r2,1
 2000ea8:	e0bff285 	stb	r2,-54(fp)
 2000eac:	e0bff287 	ldb	r2,-54(fp)
 2000eb0:	1000101e 	bne	r2,zero,2000ef4 <HandleKursSetParamValue+0x144>
 2000eb4:	e13ff817 	ldw	r4,-32(fp)
 2000eb8:	01400ec4 	movi	r5,59
 2000ebc:	20348240 	call	2034824 <strchr>
 2000ec0:	e0bff015 	stw	r2,-64(fp)
 2000ec4:	e0bff017 	ldw	r2,-64(fp)
 2000ec8:	10000a26 	beq	r2,zero,2000ef4 <HandleKursSetParamValue+0x144>
 2000ecc:	e0bff017 	ldw	r2,-64(fp)
 2000ed0:	10c00044 	addi	r3,r2,1
 2000ed4:	e0bff784 	addi	r2,fp,-34
 2000ed8:	1809883a 	mov	r4,r3
 2000edc:	100b883a 	mov	r5,r2
 2000ee0:	200411c0 	call	200411c <StrToU16>
 2000ee4:	10803fcc 	andi	r2,r2,255
 2000ee8:	1080201c 	xori	r2,r2,128
 2000eec:	10bfe004 	addi	r2,r2,-128
 2000ef0:	1000021e 	bne	r2,zero,2000efc <HandleKursSetParamValue+0x14c>
 2000ef4:	00800044 	movi	r2,1
 2000ef8:	e0bff285 	stb	r2,-54(fp)
 2000efc:	e0bff287 	ldb	r2,-54(fp)
 2000f00:	1000081e 	bne	r2,zero,2000f24 <HandleKursSetParamValue+0x174>
 2000f04:	e0bff017 	ldw	r2,-64(fp)
 2000f08:	10800044 	addi	r2,r2,1
 2000f0c:	1009883a 	mov	r4,r2
 2000f10:	01400ec4 	movi	r5,59
 2000f14:	20348240 	call	2034824 <strchr>
 2000f18:	e0bff015 	stw	r2,-64(fp)
 2000f1c:	e0bff017 	ldw	r2,-64(fp)
 2000f20:	1000021e 	bne	r2,zero,2000f2c <HandleKursSetParamValue+0x17c>
 2000f24:	00800044 	movi	r2,1
 2000f28:	e0bff285 	stb	r2,-54(fp)
 2000f2c:	e0bff287 	ldb	r2,-54(fp)
 2000f30:	1000941e 	bne	r2,zero,2001184 <HandleKursSetParamValue+0x3d4>
 2000f34:	e0bff017 	ldw	r2,-64(fp)
 2000f38:	10800044 	addi	r2,r2,1
 2000f3c:	e0bfef15 	stw	r2,-68(fp)
 2000f40:	e0bff70b 	ldhu	r2,-36(fp)
 2000f44:	10bfffcc 	andi	r2,r2,65535
 2000f48:	10003426 	beq	r2,zero,200101c <HandleKursSetParamValue+0x26c>
 2000f4c:	e0bff70b 	ldhu	r2,-36(fp)
 2000f50:	10bfffcc 	andi	r2,r2,65535
 2000f54:	108000a0 	cmpeqi	r2,r2,2
 2000f58:	1000301e 	bne	r2,zero,200101c <HandleKursSetParamValue+0x26c>
 2000f5c:	e0bff70b 	ldhu	r2,-36(fp)
 2000f60:	10bfffcc 	andi	r2,r2,65535
 2000f64:	10800268 	cmpgeui	r2,r2,9
 2000f68:	10002c1e 	bne	r2,zero,200101c <HandleKursSetParamValue+0x26c>
 2000f6c:	e0bff70b 	ldhu	r2,-36(fp)
 2000f70:	10bfffcc 	andi	r2,r2,65535
 2000f74:	10ffffc4 	addi	r3,r2,-1
 2000f78:	008081b4 	movhi	r2,518
 2000f7c:	10ad3504 	addi	r2,r2,-19244
 2000f80:	18c001c4 	addi	r3,r3,7
 2000f84:	18c7883a 	add	r3,r3,r3
 2000f88:	18c7883a 	add	r3,r3,r3
 2000f8c:	10c5883a 	add	r2,r2,r3
 2000f90:	10800017 	ldw	r2,0(r2)
 2000f94:	10002126 	beq	r2,zero,200101c <HandleKursSetParamValue+0x26c>
 2000f98:	e0bff70b 	ldhu	r2,-36(fp)
 2000f9c:	10bfffcc 	andi	r2,r2,65535
 2000fa0:	10ffffc4 	addi	r3,r2,-1
 2000fa4:	008081b4 	movhi	r2,518
 2000fa8:	10ad3504 	addi	r2,r2,-19244
 2000fac:	18c00984 	addi	r3,r3,38
 2000fb0:	18c7883a 	add	r3,r3,r3
 2000fb4:	10c5883a 	add	r2,r2,r3
 2000fb8:	1080000b 	ldhu	r2,0(r2)
 2000fbc:	10bfffcc 	andi	r2,r2,65535
 2000fc0:	10001626 	beq	r2,zero,200101c <HandleKursSetParamValue+0x26c>
 2000fc4:	e0bff70b 	ldhu	r2,-36(fp)
 2000fc8:	10bfffcc 	andi	r2,r2,65535
 2000fcc:	10ffffc4 	addi	r3,r2,-1
 2000fd0:	008081b4 	movhi	r2,518
 2000fd4:	10ad3504 	addi	r2,r2,-19244
 2000fd8:	18c001c4 	addi	r3,r3,7
 2000fdc:	18c7883a 	add	r3,r3,r3
 2000fe0:	18c7883a 	add	r3,r3,r3
 2000fe4:	10c5883a 	add	r2,r2,r3
 2000fe8:	10800017 	ldw	r2,0(r2)
 2000fec:	e0bff115 	stw	r2,-60(fp)
 2000ff0:	e0bff70b 	ldhu	r2,-36(fp)
 2000ff4:	10bfffcc 	andi	r2,r2,65535
 2000ff8:	10ffffc4 	addi	r3,r2,-1
 2000ffc:	008081b4 	movhi	r2,518
 2001000:	10ad3504 	addi	r2,r2,-19244
 2001004:	18c00984 	addi	r3,r3,38
 2001008:	18c7883a 	add	r3,r3,r3
 200100c:	10c5883a 	add	r2,r2,r3
 2001010:	1080000b 	ldhu	r2,0(r2)
 2001014:	e0bff20d 	sth	r2,-56(fp)
 2001018:	00003306 	br	20010e8 <HandleKursSetParamValue+0x338>
 200101c:	e0bff70b 	ldhu	r2,-36(fp)
 2001020:	10bfffcc 	andi	r2,r2,65535
 2001024:	10801930 	cmpltui	r2,r2,100
 2001028:	10002f1e 	bne	r2,zero,20010e8 <HandleKursSetParamValue+0x338>
 200102c:	e0bff70b 	ldhu	r2,-36(fp)
 2001030:	10bfffcc 	andi	r2,r2,65535
 2001034:	10801a28 	cmpgeui	r2,r2,104
 2001038:	10002b1e 	bne	r2,zero,20010e8 <HandleKursSetParamValue+0x338>
 200103c:	e0bff70b 	ldhu	r2,-36(fp)
 2001040:	10bfffcc 	andi	r2,r2,65535
 2001044:	10ffe904 	addi	r3,r2,-92
 2001048:	008081b4 	movhi	r2,518
 200104c:	10ad3504 	addi	r2,r2,-19244
 2001050:	18c001c4 	addi	r3,r3,7
 2001054:	18c7883a 	add	r3,r3,r3
 2001058:	18c7883a 	add	r3,r3,r3
 200105c:	10c5883a 	add	r2,r2,r3
 2001060:	10800017 	ldw	r2,0(r2)
 2001064:	10002026 	beq	r2,zero,20010e8 <HandleKursSetParamValue+0x338>
 2001068:	e0bff70b 	ldhu	r2,-36(fp)
 200106c:	10bfffcc 	andi	r2,r2,65535
 2001070:	10ffe904 	addi	r3,r2,-92
 2001074:	008081b4 	movhi	r2,518
 2001078:	10ad3504 	addi	r2,r2,-19244
 200107c:	18c00984 	addi	r3,r3,38
 2001080:	18c7883a 	add	r3,r3,r3
 2001084:	10c5883a 	add	r2,r2,r3
 2001088:	1080000b 	ldhu	r2,0(r2)
 200108c:	10bfffcc 	andi	r2,r2,65535
 2001090:	10001526 	beq	r2,zero,20010e8 <HandleKursSetParamValue+0x338>
 2001094:	e0bff70b 	ldhu	r2,-36(fp)
 2001098:	10bfffcc 	andi	r2,r2,65535
 200109c:	10ffe904 	addi	r3,r2,-92
 20010a0:	008081b4 	movhi	r2,518
 20010a4:	10ad3504 	addi	r2,r2,-19244
 20010a8:	18c001c4 	addi	r3,r3,7
 20010ac:	18c7883a 	add	r3,r3,r3
 20010b0:	18c7883a 	add	r3,r3,r3
 20010b4:	10c5883a 	add	r2,r2,r3
 20010b8:	10800017 	ldw	r2,0(r2)
 20010bc:	e0bff115 	stw	r2,-60(fp)
 20010c0:	e0bff70b 	ldhu	r2,-36(fp)
 20010c4:	10bfffcc 	andi	r2,r2,65535
 20010c8:	10ffe904 	addi	r3,r2,-92
 20010cc:	008081b4 	movhi	r2,518
 20010d0:	10ad3504 	addi	r2,r2,-19244
 20010d4:	18c00984 	addi	r3,r3,38
 20010d8:	18c7883a 	add	r3,r3,r3
 20010dc:	10c5883a 	add	r2,r2,r3
 20010e0:	1080000b 	ldhu	r2,0(r2)
 20010e4:	e0bff20d 	sth	r2,-56(fp)
 20010e8:	e0bff117 	ldw	r2,-60(fp)
 20010ec:	10002526 	beq	r2,zero,2001184 <HandleKursSetParamValue+0x3d4>
 20010f0:	e0bff78b 	ldhu	r2,-34(fp)
 20010f4:	10bfffcc 	andi	r2,r2,65535
 20010f8:	10800924 	muli	r2,r2,36
 20010fc:	10bff704 	addi	r2,r2,-36
 2001100:	e0fff117 	ldw	r3,-60(fp)
 2001104:	1885883a 	add	r2,r3,r2
 2001108:	e0bff115 	stw	r2,-60(fp)
 200110c:	e0bff117 	ldw	r2,-60(fp)
 2001110:	10001c26 	beq	r2,zero,2001184 <HandleKursSetParamValue+0x3d4>
 2001114:	e0bff117 	ldw	r2,-60(fp)
 2001118:	1080018b 	ldhu	r2,6(r2)
 200111c:	10bfffcc 	andi	r2,r2,65535
 2001120:	10800820 	cmpeqi	r2,r2,32
 2001124:	1000051e 	bne	r2,zero,200113c <HandleKursSetParamValue+0x38c>
 2001128:	e0bff117 	ldw	r2,-60(fp)
 200112c:	1080018b 	ldhu	r2,6(r2)
 2001130:	10bfffcc 	andi	r2,r2,65535
 2001134:	10802018 	cmpnei	r2,r2,128
 2001138:	10000f1e 	bne	r2,zero,2001178 <HandleKursSetParamValue+0x3c8>
 200113c:	e0bff017 	ldw	r2,-64(fp)
 2001140:	10800044 	addi	r2,r2,1
 2001144:	1009883a 	mov	r4,r2
 2001148:	01400ec4 	movi	r5,59
 200114c:	20348240 	call	2034824 <strchr>
 2001150:	e0bff015 	stw	r2,-64(fp)
 2001154:	e0bff017 	ldw	r2,-64(fp)
 2001158:	1000021e 	bne	r2,zero,2001164 <HandleKursSetParamValue+0x3b4>
 200115c:	00800044 	movi	r2,1
 2001160:	e0bff285 	stb	r2,-54(fp)
 2001164:	e0fff017 	ldw	r3,-64(fp)
 2001168:	e0bfef17 	ldw	r2,-68(fp)
 200116c:	1885c83a 	sub	r2,r3,r2
 2001170:	e0bfee0d 	sth	r2,-72(fp)
 2001174:	00000306 	br	2001184 <HandleKursSetParamValue+0x3d4>
 2001178:	e0bff117 	ldw	r2,-60(fp)
 200117c:	1080040b 	ldhu	r2,16(r2)
 2001180:	e0bfee0d 	sth	r2,-72(fp)
 2001184:	e0bff287 	ldb	r2,-54(fp)
 2001188:	1000731e 	bne	r2,zero,2001358 <HandleKursSetParamValue+0x5a8>
 200118c:	008081b4 	movhi	r2,518
 2001190:	10ad3504 	addi	r2,r2,-19244
 2001194:	10801903 	ldbu	r2,100(r2)
 2001198:	10803fcc 	andi	r2,r2,255
 200119c:	1080201c 	xori	r2,r2,128
 20011a0:	10bfe004 	addi	r2,r2,-128
 20011a4:	10006c26 	beq	r2,zero,2001358 <HandleKursSetParamValue+0x5a8>
 20011a8:	e0bff117 	ldw	r2,-60(fp)
 20011ac:	10006a26 	beq	r2,zero,2001358 <HandleKursSetParamValue+0x5a8>
 20011b0:	e0bff78b 	ldhu	r2,-34(fp)
 20011b4:	10bfffcc 	andi	r2,r2,65535
 20011b8:	10006726 	beq	r2,zero,2001358 <HandleKursSetParamValue+0x5a8>
 20011bc:	e0bff78b 	ldhu	r2,-34(fp)
 20011c0:	10bfffcc 	andi	r2,r2,65535
 20011c4:	e0fff20b 	ldhu	r3,-56(fp)
 20011c8:	18806336 	bltu	r3,r2,2001358 <HandleKursSetParamValue+0x5a8>
 20011cc:	e0bff817 	ldw	r2,-32(fp)
 20011d0:	10800044 	addi	r2,r2,1
 20011d4:	10800003 	ldbu	r2,0(r2)
 20011d8:	10803fcc 	andi	r2,r2,255
 20011dc:	1080201c 	xori	r2,r2,128
 20011e0:	10bfe004 	addi	r2,r2,-128
 20011e4:	10801c98 	cmpnei	r2,r2,114
 20011e8:	1000041e 	bne	r2,zero,20011fc <HandleKursSetParamValue+0x44c>
 20011ec:	e0bff70b 	ldhu	r2,-36(fp)
 20011f0:	10bfffcc 	andi	r2,r2,65535
 20011f4:	10800198 	cmpnei	r2,r2,6
 20011f8:	10000c1e 	bne	r2,zero,200122c <HandleKursSetParamValue+0x47c>
 20011fc:	e0bff817 	ldw	r2,-32(fp)
 2001200:	10800044 	addi	r2,r2,1
 2001204:	10800003 	ldbu	r2,0(r2)
 2001208:	10803fcc 	andi	r2,r2,255
 200120c:	1080201c 	xori	r2,r2,128
 2001210:	10bfe004 	addi	r2,r2,-128
 2001214:	10801d98 	cmpnei	r2,r2,118
 2001218:	10004f1e 	bne	r2,zero,2001358 <HandleKursSetParamValue+0x5a8>
 200121c:	e0bff70b 	ldhu	r2,-36(fp)
 2001220:	10bfffcc 	andi	r2,r2,65535
 2001224:	10800198 	cmpnei	r2,r2,6
 2001228:	10004b1e 	bne	r2,zero,2001358 <HandleKursSetParamValue+0x5a8>
 200122c:	e0bff117 	ldw	r2,-60(fp)
 2001230:	1080020b 	ldhu	r2,8(r2)
 2001234:	10bfffcc 	andi	r2,r2,65535
 2001238:	10802a8c 	andi	r2,r2,170
 200123c:	10004626 	beq	r2,zero,2001358 <HandleKursSetParamValue+0x5a8>
 2001240:	e0bfee0b 	ldhu	r2,-72(fp)
 2001244:	010081b4 	movhi	r4,518
 2001248:	212d3504 	addi	r4,r4,-19244
 200124c:	e17ff117 	ldw	r5,-60(fp)
 2001250:	e1bfef17 	ldw	r6,-68(fp)
 2001254:	100f883a 	mov	r7,r2
 2001258:	2002f680 	call	2002f68 <SetStrValueItem>
 200125c:	10803fcc 	andi	r2,r2,255
 2001260:	1080201c 	xori	r2,r2,128
 2001264:	10bfe004 	addi	r2,r2,-128
 2001268:	10003b26 	beq	r2,zero,2001358 <HandleKursSetParamValue+0x5a8>
 200126c:	e0bff817 	ldw	r2,-32(fp)
 2001270:	10c00003 	ldbu	r3,0(r2)
 2001274:	e0bff317 	ldw	r2,-52(fp)
 2001278:	10c00005 	stb	r3,0(r2)
 200127c:	e0bff317 	ldw	r2,-52(fp)
 2001280:	10800044 	addi	r2,r2,1
 2001284:	e0fff817 	ldw	r3,-32(fp)
 2001288:	18c00043 	ldbu	r3,1(r3)
 200128c:	10c00005 	stb	r3,0(r2)
 2001290:	e0bff317 	ldw	r2,-52(fp)
 2001294:	10800084 	addi	r2,r2,2
 2001298:	e0bff315 	stw	r2,-52(fp)
 200129c:	e0bff70b 	ldhu	r2,-36(fp)
 20012a0:	10ffffcc 	andi	r3,r2,65535
 20012a4:	e0bff78b 	ldhu	r2,-34(fp)
 20012a8:	10bfffcc 	andi	r2,r2,65535
 20012ac:	e13ff317 	ldw	r4,-52(fp)
 20012b0:	01408174 	movhi	r5,517
 20012b4:	29617004 	addi	r5,r5,-31296
 20012b8:	180d883a 	mov	r6,r3
 20012bc:	100f883a 	mov	r7,r2
 20012c0:	20347b80 	call	20347b8 <sprintf>
 20012c4:	1007883a 	mov	r3,r2
 20012c8:	e0bff317 	ldw	r2,-52(fp)
 20012cc:	10c5883a 	add	r2,r2,r3
 20012d0:	e0bff315 	stw	r2,-52(fp)
 20012d4:	e0bff117 	ldw	r2,-60(fp)
 20012d8:	10800103 	ldbu	r2,4(r2)
 20012dc:	10803fcc 	andi	r2,r2,255
 20012e0:	1080201c 	xori	r2,r2,128
 20012e4:	10bfe004 	addi	r2,r2,-128
 20012e8:	10000426 	beq	r2,zero,20012fc <HandleKursSetParamValue+0x54c>
 20012ec:	010081b4 	movhi	r4,518
 20012f0:	212d3504 	addi	r4,r4,-19244
 20012f4:	e17ff117 	ldw	r5,-60(fp)
 20012f8:	20037b40 	call	20037b4 <profile_userget_value>
 20012fc:	010081b4 	movhi	r4,518
 2001300:	212d3504 	addi	r4,r4,-19244
 2001304:	e17ff117 	ldw	r5,-60(fp)
 2001308:	e1bff317 	ldw	r6,-52(fp)
 200130c:	20027580 	call	2002758 <GetStrParamValueItem>
 2001310:	10bfffcc 	andi	r2,r2,65535
 2001314:	e0fff317 	ldw	r3,-52(fp)
 2001318:	1885883a 	add	r2,r3,r2
 200131c:	e0bff315 	stw	r2,-52(fp)
 2001320:	e0bff317 	ldw	r2,-52(fp)
 2001324:	10c00044 	addi	r3,r2,1
 2001328:	e0fff315 	stw	r3,-52(fp)
 200132c:	00c00ec4 	movi	r3,59
 2001330:	10c00005 	stb	r3,0(r2)
 2001334:	e0bff317 	ldw	r2,-52(fp)
 2001338:	10000005 	stb	zero,0(r2)
 200133c:	008081b4 	movhi	r2,518
 2001340:	10ad3504 	addi	r2,r2,-19244
 2001344:	10801f17 	ldw	r2,124(r2)
 2001348:	010081b4 	movhi	r4,518
 200134c:	212d3504 	addi	r4,r4,-19244
 2001350:	103ee83a 	callr	r2
 2001354:	00001a06 	br	20013c0 <HandleKursSetParamValue+0x610>
 2001358:	e0bff817 	ldw	r2,-32(fp)
 200135c:	10c00003 	ldbu	r3,0(r2)
 2001360:	e0bff317 	ldw	r2,-52(fp)
 2001364:	10c00005 	stb	r3,0(r2)
 2001368:	e0bff317 	ldw	r2,-52(fp)
 200136c:	10800044 	addi	r2,r2,1
 2001370:	e0fff817 	ldw	r3,-32(fp)
 2001374:	18c00043 	ldbu	r3,1(r3)
 2001378:	10c00005 	stb	r3,0(r2)
 200137c:	e0bff317 	ldw	r2,-52(fp)
 2001380:	10800084 	addi	r2,r2,2
 2001384:	e0bff315 	stw	r2,-52(fp)
 2001388:	e0bff70b 	ldhu	r2,-36(fp)
 200138c:	10ffffcc 	andi	r3,r2,65535
 2001390:	e0bff78b 	ldhu	r2,-34(fp)
 2001394:	10bfffcc 	andi	r2,r2,65535
 2001398:	e13ff317 	ldw	r4,-52(fp)
 200139c:	01408174 	movhi	r5,517
 20013a0:	29617204 	addi	r5,r5,-31288
 20013a4:	180d883a 	mov	r6,r3
 20013a8:	100f883a 	mov	r7,r2
 20013ac:	20347b80 	call	20347b8 <sprintf>
 20013b0:	1007883a 	mov	r3,r2
 20013b4:	e0bff317 	ldw	r2,-52(fp)
 20013b8:	10c5883a 	add	r2,r2,r3
 20013bc:	e0bff315 	stw	r2,-52(fp)
 20013c0:	e0fff317 	ldw	r3,-52(fp)
 20013c4:	e0bff917 	ldw	r2,-28(fp)
 20013c8:	1885c83a 	sub	r2,r3,r2
 20013cc:	10bfffcc 	andi	r2,r2,65535
 20013d0:	e13ff917 	ldw	r4,-28(fp)
 20013d4:	100b883a 	mov	r5,r2
 20013d8:	2005a080 	call	2005a08 <get_crc16_ascii>
 20013dc:	10bfffcc 	andi	r2,r2,65535
 20013e0:	e13ff317 	ldw	r4,-52(fp)
 20013e4:	01408174 	movhi	r5,517
 20013e8:	29616d04 	addi	r5,r5,-31308
 20013ec:	100d883a 	mov	r6,r2
 20013f0:	20347b80 	call	20347b8 <sprintf>
 20013f4:	1007883a 	mov	r3,r2
 20013f8:	e0bff317 	ldw	r2,-52(fp)
 20013fc:	10c5883a 	add	r2,r2,r3
 2001400:	e0bff315 	stw	r2,-52(fp)
 2001404:	e0fff317 	ldw	r3,-52(fp)
 2001408:	e0bff917 	ldw	r2,-28(fp)
 200140c:	1887c83a 	sub	r3,r3,r2
 2001410:	e0bffa17 	ldw	r2,-24(fp)
 2001414:	10c00015 	stw	r3,0(r2)
 2001418:	e037883a 	mov	sp,fp
 200141c:	dfc00117 	ldw	ra,4(sp)
 2001420:	df000017 	ldw	fp,0(sp)
 2001424:	dec00204 	addi	sp,sp,8
 2001428:	f800283a 	ret

0200142c <HandleKursSetColorDegradeAndFailure>:
 200142c:	deffef04 	addi	sp,sp,-68
 2001430:	dfc01015 	stw	ra,64(sp)
 2001434:	df000f15 	stw	fp,60(sp)
 2001438:	df000f04 	addi	fp,sp,60
 200143c:	e13ffd15 	stw	r4,-12(fp)
 2001440:	e17ffe15 	stw	r5,-8(fp)
 2001444:	e1bfff15 	stw	r6,-4(fp)
 2001448:	e03ffb0d 	sth	zero,-20(fp)
 200144c:	e03ffb8d 	sth	zero,-18(fp)
 2001450:	e03ff315 	stw	zero,-52(fp)
 2001454:	008081b4 	movhi	r2,518
 2001458:	10ad3504 	addi	r2,r2,-19244
 200145c:	10800817 	ldw	r2,32(r2)
 2001460:	e0bff615 	stw	r2,-40(fp)
 2001464:	008081b4 	movhi	r2,518
 2001468:	10ad3504 	addi	r2,r2,-19244
 200146c:	1080138b 	ldhu	r2,78(r2)
 2001470:	e0bff70d 	sth	r2,-36(fp)
 2001474:	e03ff405 	stb	zero,-48(fp)
 2001478:	e0bffe17 	ldw	r2,-8(fp)
 200147c:	e0bff515 	stw	r2,-44(fp)
 2001480:	e13ffd17 	ldw	r4,-12(fp)
 2001484:	01400ec4 	movi	r5,59
 2001488:	2034c5c0 	call	2034c5c <strrchr>
 200148c:	e0bff815 	stw	r2,-32(fp)
 2001490:	e03ff915 	stw	zero,-28(fp)
 2001494:	e03ffa15 	stw	zero,-24(fp)
 2001498:	e0bff817 	ldw	r2,-32(fp)
 200149c:	10001626 	beq	r2,zero,20014f8 <HandleKursSetColorDegradeAndFailure+0xcc>
 20014a0:	e0bff817 	ldw	r2,-32(fp)
 20014a4:	10800044 	addi	r2,r2,1
 20014a8:	e0bff815 	stw	r2,-32(fp)
 20014ac:	e13ff817 	ldw	r4,-32(fp)
 20014b0:	017fffc4 	movi	r5,-1
 20014b4:	2004a000 	call	2004a00 <StrToU32Def>
 20014b8:	e0bff915 	stw	r2,-28(fp)
 20014bc:	e0fff817 	ldw	r3,-32(fp)
 20014c0:	e0bffd17 	ldw	r2,-12(fp)
 20014c4:	1885c83a 	sub	r2,r3,r2
 20014c8:	10bfffcc 	andi	r2,r2,65535
 20014cc:	e13ffd17 	ldw	r4,-12(fp)
 20014d0:	100b883a 	mov	r5,r2
 20014d4:	2005a080 	call	2005a08 <get_crc16_ascii>
 20014d8:	10bfffcc 	andi	r2,r2,65535
 20014dc:	e0bffa15 	stw	r2,-24(fp)
 20014e0:	e0fff917 	ldw	r3,-28(fp)
 20014e4:	e0bffa17 	ldw	r2,-24(fp)
 20014e8:	18800526 	beq	r3,r2,2001500 <HandleKursSetColorDegradeAndFailure+0xd4>
 20014ec:	00800044 	movi	r2,1
 20014f0:	e0bff405 	stb	r2,-48(fp)
 20014f4:	00000206 	br	2001500 <HandleKursSetColorDegradeAndFailure+0xd4>
 20014f8:	00800044 	movi	r2,1
 20014fc:	e0bff405 	stb	r2,-48(fp)
 2001500:	e0bffd17 	ldw	r2,-12(fp)
 2001504:	10c00084 	addi	r3,r2,2
 2001508:	e0bffb04 	addi	r2,fp,-20
 200150c:	1809883a 	mov	r4,r3
 2001510:	100b883a 	mov	r5,r2
 2001514:	200411c0 	call	200411c <StrToU16>
 2001518:	10803fcc 	andi	r2,r2,255
 200151c:	1080201c 	xori	r2,r2,128
 2001520:	10bfe004 	addi	r2,r2,-128
 2001524:	1000021e 	bne	r2,zero,2001530 <HandleKursSetColorDegradeAndFailure+0x104>
 2001528:	00800044 	movi	r2,1
 200152c:	e0bff405 	stb	r2,-48(fp)
 2001530:	e0bff407 	ldb	r2,-48(fp)
 2001534:	1000101e 	bne	r2,zero,2001578 <HandleKursSetColorDegradeAndFailure+0x14c>
 2001538:	e13ffd17 	ldw	r4,-12(fp)
 200153c:	01400ec4 	movi	r5,59
 2001540:	20348240 	call	2034824 <strchr>
 2001544:	e0bff315 	stw	r2,-52(fp)
 2001548:	e0bff317 	ldw	r2,-52(fp)
 200154c:	10000a26 	beq	r2,zero,2001578 <HandleKursSetColorDegradeAndFailure+0x14c>
 2001550:	e0bff317 	ldw	r2,-52(fp)
 2001554:	10c00044 	addi	r3,r2,1
 2001558:	e0bffb84 	addi	r2,fp,-18
 200155c:	1809883a 	mov	r4,r3
 2001560:	100b883a 	mov	r5,r2
 2001564:	200411c0 	call	200411c <StrToU16>
 2001568:	10803fcc 	andi	r2,r2,255
 200156c:	1080201c 	xori	r2,r2,128
 2001570:	10bfe004 	addi	r2,r2,-128
 2001574:	1000021e 	bne	r2,zero,2001580 <HandleKursSetColorDegradeAndFailure+0x154>
 2001578:	00800044 	movi	r2,1
 200157c:	e0bff405 	stb	r2,-48(fp)
 2001580:	e0bff407 	ldb	r2,-48(fp)
 2001584:	1000121e 	bne	r2,zero,20015d0 <HandleKursSetColorDegradeAndFailure+0x1a4>
 2001588:	e0bff317 	ldw	r2,-52(fp)
 200158c:	10800044 	addi	r2,r2,1
 2001590:	1009883a 	mov	r4,r2
 2001594:	01400ec4 	movi	r5,59
 2001598:	20348240 	call	2034824 <strchr>
 200159c:	e0bff315 	stw	r2,-52(fp)
 20015a0:	e0bff317 	ldw	r2,-52(fp)
 20015a4:	10000a26 	beq	r2,zero,20015d0 <HandleKursSetColorDegradeAndFailure+0x1a4>
 20015a8:	e0bff317 	ldw	r2,-52(fp)
 20015ac:	10c00044 	addi	r3,r2,1
 20015b0:	e0bffc04 	addi	r2,fp,-16
 20015b4:	1809883a 	mov	r4,r3
 20015b8:	100b883a 	mov	r5,r2
 20015bc:	200411c0 	call	200411c <StrToU16>
 20015c0:	10803fcc 	andi	r2,r2,255
 20015c4:	1080201c 	xori	r2,r2,128
 20015c8:	10bfe004 	addi	r2,r2,-128
 20015cc:	1000021e 	bne	r2,zero,20015d8 <HandleKursSetColorDegradeAndFailure+0x1ac>
 20015d0:	00800044 	movi	r2,1
 20015d4:	e0bff405 	stb	r2,-48(fp)
 20015d8:	e0bff407 	ldb	r2,-48(fp)
 20015dc:	1000121e 	bne	r2,zero,2001628 <HandleKursSetColorDegradeAndFailure+0x1fc>
 20015e0:	e0bff317 	ldw	r2,-52(fp)
 20015e4:	10800044 	addi	r2,r2,1
 20015e8:	1009883a 	mov	r4,r2
 20015ec:	01400ec4 	movi	r5,59
 20015f0:	20348240 	call	2034824 <strchr>
 20015f4:	e0bff315 	stw	r2,-52(fp)
 20015f8:	e0bff317 	ldw	r2,-52(fp)
 20015fc:	10000a26 	beq	r2,zero,2001628 <HandleKursSetColorDegradeAndFailure+0x1fc>
 2001600:	e0bff317 	ldw	r2,-52(fp)
 2001604:	10c00044 	addi	r3,r2,1
 2001608:	e0bffc84 	addi	r2,fp,-14
 200160c:	1809883a 	mov	r4,r3
 2001610:	100b883a 	mov	r5,r2
 2001614:	200411c0 	call	200411c <StrToU16>
 2001618:	10803fcc 	andi	r2,r2,255
 200161c:	1080201c 	xori	r2,r2,128
 2001620:	10bfe004 	addi	r2,r2,-128
 2001624:	1000021e 	bne	r2,zero,2001630 <HandleKursSetColorDegradeAndFailure+0x204>
 2001628:	00800044 	movi	r2,1
 200162c:	e0bff405 	stb	r2,-48(fp)
 2001630:	e0bff407 	ldb	r2,-48(fp)
 2001634:	10005f1e 	bne	r2,zero,20017b4 <HandleKursSetColorDegradeAndFailure+0x388>
 2001638:	008081b4 	movhi	r2,518
 200163c:	10ad3504 	addi	r2,r2,-19244
 2001640:	10801903 	ldbu	r2,100(r2)
 2001644:	10803fcc 	andi	r2,r2,255
 2001648:	1080201c 	xori	r2,r2,128
 200164c:	10bfe004 	addi	r2,r2,-128
 2001650:	10005826 	beq	r2,zero,20017b4 <HandleKursSetColorDegradeAndFailure+0x388>
 2001654:	e0bffb0b 	ldhu	r2,-20(fp)
 2001658:	10bfffcc 	andi	r2,r2,65535
 200165c:	10800098 	cmpnei	r2,r2,2
 2001660:	1000541e 	bne	r2,zero,20017b4 <HandleKursSetColorDegradeAndFailure+0x388>
 2001664:	e0bffb8b 	ldhu	r2,-18(fp)
 2001668:	10bfffcc 	andi	r2,r2,65535
 200166c:	10005126 	beq	r2,zero,20017b4 <HandleKursSetColorDegradeAndFailure+0x388>
 2001670:	e0bffb8b 	ldhu	r2,-18(fp)
 2001674:	10bfffcc 	andi	r2,r2,65535
 2001678:	e0fff70b 	ldhu	r3,-36(fp)
 200167c:	18804d36 	bltu	r3,r2,20017b4 <HandleKursSetColorDegradeAndFailure+0x388>
 2001680:	e0bffb8b 	ldhu	r2,-18(fp)
 2001684:	10bfffcc 	andi	r2,r2,65535
 2001688:	10800924 	muli	r2,r2,36
 200168c:	10bff704 	addi	r2,r2,-36
 2001690:	e0fff617 	ldw	r3,-40(fp)
 2001694:	1885883a 	add	r2,r3,r2
 2001698:	e0bff615 	stw	r2,-40(fp)
 200169c:	e0bff617 	ldw	r2,-40(fp)
 20016a0:	10004426 	beq	r2,zero,20017b4 <HandleKursSetColorDegradeAndFailure+0x388>
 20016a4:	e0bff617 	ldw	r2,-40(fp)
 20016a8:	10800717 	ldw	r2,28(r2)
 20016ac:	1080008b 	ldhu	r2,2(r2)
 20016b0:	10bfffcc 	andi	r2,r2,65535
 20016b4:	10000b26 	beq	r2,zero,20016e4 <HandleKursSetColorDegradeAndFailure+0x2b8>
 20016b8:	e0bffc0b 	ldhu	r2,-16(fp)
 20016bc:	10bfffcc 	andi	r2,r2,65535
 20016c0:	10000826 	beq	r2,zero,20016e4 <HandleKursSetColorDegradeAndFailure+0x2b8>
 20016c4:	e0bffc0b 	ldhu	r2,-16(fp)
 20016c8:	10bfffcc 	andi	r2,r2,65535
 20016cc:	10800228 	cmpgeui	r2,r2,8
 20016d0:	1000041e 	bne	r2,zero,20016e4 <HandleKursSetColorDegradeAndFailure+0x2b8>
 20016d4:	e0bff617 	ldw	r2,-40(fp)
 20016d8:	10800717 	ldw	r2,28(r2)
 20016dc:	e0fffc0b 	ldhu	r3,-16(fp)
 20016e0:	10c0008d 	sth	r3,2(r2)
 20016e4:	e0bff617 	ldw	r2,-40(fp)
 20016e8:	10800717 	ldw	r2,28(r2)
 20016ec:	1080010b 	ldhu	r2,4(r2)
 20016f0:	10bfffcc 	andi	r2,r2,65535
 20016f4:	10000b26 	beq	r2,zero,2001724 <HandleKursSetColorDegradeAndFailure+0x2f8>
 20016f8:	e0bffc8b 	ldhu	r2,-14(fp)
 20016fc:	10bfffcc 	andi	r2,r2,65535
 2001700:	10000826 	beq	r2,zero,2001724 <HandleKursSetColorDegradeAndFailure+0x2f8>
 2001704:	e0bffc8b 	ldhu	r2,-14(fp)
 2001708:	10bfffcc 	andi	r2,r2,65535
 200170c:	10800228 	cmpgeui	r2,r2,8
 2001710:	1000041e 	bne	r2,zero,2001724 <HandleKursSetColorDegradeAndFailure+0x2f8>
 2001714:	e0bff617 	ldw	r2,-40(fp)
 2001718:	10800717 	ldw	r2,28(r2)
 200171c:	e0fffc8b 	ldhu	r3,-14(fp)
 2001720:	10c0010d 	sth	r3,4(r2)
 2001724:	e0bffd17 	ldw	r2,-12(fp)
 2001728:	10c0000b 	ldhu	r3,0(r2)
 200172c:	e0bff517 	ldw	r2,-44(fp)
 2001730:	10c0000d 	sth	r3,0(r2)
 2001734:	e0bff517 	ldw	r2,-44(fp)
 2001738:	10800084 	addi	r2,r2,2
 200173c:	e0bff515 	stw	r2,-44(fp)
 2001740:	e0bffb0b 	ldhu	r2,-20(fp)
 2001744:	11bfffcc 	andi	r6,r2,65535
 2001748:	e0bffb8b 	ldhu	r2,-18(fp)
 200174c:	11ffffcc 	andi	r7,r2,65535
 2001750:	e0bff617 	ldw	r2,-40(fp)
 2001754:	10800717 	ldw	r2,28(r2)
 2001758:	1080008b 	ldhu	r2,2(r2)
 200175c:	10ffffcc 	andi	r3,r2,65535
 2001760:	e0bff617 	ldw	r2,-40(fp)
 2001764:	10800717 	ldw	r2,28(r2)
 2001768:	1080010b 	ldhu	r2,4(r2)
 200176c:	10bfffcc 	andi	r2,r2,65535
 2001770:	d8c00015 	stw	r3,0(sp)
 2001774:	d8800115 	stw	r2,4(sp)
 2001778:	e13ff517 	ldw	r4,-44(fp)
 200177c:	01408174 	movhi	r5,517
 2001780:	29617504 	addi	r5,r5,-31276
 2001784:	20347b80 	call	20347b8 <sprintf>
 2001788:	1007883a 	mov	r3,r2
 200178c:	e0bff517 	ldw	r2,-44(fp)
 2001790:	10c5883a 	add	r2,r2,r3
 2001794:	e0bff515 	stw	r2,-44(fp)
 2001798:	008081b4 	movhi	r2,518
 200179c:	10ad3504 	addi	r2,r2,-19244
 20017a0:	10801f17 	ldw	r2,124(r2)
 20017a4:	010081b4 	movhi	r4,518
 20017a8:	212d3504 	addi	r4,r4,-19244
 20017ac:	103ee83a 	callr	r2
 20017b0:	00001a06 	br	200181c <HandleKursSetColorDegradeAndFailure+0x3f0>
 20017b4:	e0bffd17 	ldw	r2,-12(fp)
 20017b8:	10c00003 	ldbu	r3,0(r2)
 20017bc:	e0bff517 	ldw	r2,-44(fp)
 20017c0:	10c00005 	stb	r3,0(r2)
 20017c4:	e0bff517 	ldw	r2,-44(fp)
 20017c8:	10800044 	addi	r2,r2,1
 20017cc:	e0fffd17 	ldw	r3,-12(fp)
 20017d0:	18c00043 	ldbu	r3,1(r3)
 20017d4:	10c00005 	stb	r3,0(r2)
 20017d8:	e0bff517 	ldw	r2,-44(fp)
 20017dc:	10800084 	addi	r2,r2,2
 20017e0:	e0bff515 	stw	r2,-44(fp)
 20017e4:	e0bffb0b 	ldhu	r2,-20(fp)
 20017e8:	10ffffcc 	andi	r3,r2,65535
 20017ec:	e0bffb8b 	ldhu	r2,-18(fp)
 20017f0:	10bfffcc 	andi	r2,r2,65535
 20017f4:	e13ff517 	ldw	r4,-44(fp)
 20017f8:	01408174 	movhi	r5,517
 20017fc:	29617204 	addi	r5,r5,-31288
 2001800:	180d883a 	mov	r6,r3
 2001804:	100f883a 	mov	r7,r2
 2001808:	20347b80 	call	20347b8 <sprintf>
 200180c:	1007883a 	mov	r3,r2
 2001810:	e0bff517 	ldw	r2,-44(fp)
 2001814:	10c5883a 	add	r2,r2,r3
 2001818:	e0bff515 	stw	r2,-44(fp)
 200181c:	e0fff517 	ldw	r3,-44(fp)
 2001820:	e0bffe17 	ldw	r2,-8(fp)
 2001824:	1885c83a 	sub	r2,r3,r2
 2001828:	10bfffcc 	andi	r2,r2,65535
 200182c:	e13ffe17 	ldw	r4,-8(fp)
 2001830:	100b883a 	mov	r5,r2
 2001834:	2005a080 	call	2005a08 <get_crc16_ascii>
 2001838:	10bfffcc 	andi	r2,r2,65535
 200183c:	e13ff517 	ldw	r4,-44(fp)
 2001840:	01408174 	movhi	r5,517
 2001844:	29616d04 	addi	r5,r5,-31308
 2001848:	100d883a 	mov	r6,r2
 200184c:	20347b80 	call	20347b8 <sprintf>
 2001850:	1007883a 	mov	r3,r2
 2001854:	e0bff517 	ldw	r2,-44(fp)
 2001858:	10c5883a 	add	r2,r2,r3
 200185c:	e0bff515 	stw	r2,-44(fp)
 2001860:	e0fff517 	ldw	r3,-44(fp)
 2001864:	e0bffe17 	ldw	r2,-8(fp)
 2001868:	1887c83a 	sub	r3,r3,r2
 200186c:	e0bfff17 	ldw	r2,-4(fp)
 2001870:	10c00015 	stw	r3,0(r2)
 2001874:	e037883a 	mov	sp,fp
 2001878:	dfc00117 	ldw	ra,4(sp)
 200187c:	df000017 	ldw	fp,0(sp)
 2001880:	dec00204 	addi	sp,sp,8
 2001884:	f800283a 	ret

02001888 <HandleKursGetColorDegradeAndFailure>:
 2001888:	defff604 	addi	sp,sp,-40
 200188c:	dfc00915 	stw	ra,36(sp)
 2001890:	df000815 	stw	fp,32(sp)
 2001894:	df000804 	addi	fp,sp,32
 2001898:	e13ffd15 	stw	r4,-12(fp)
 200189c:	e17ffe15 	stw	r5,-8(fp)
 20018a0:	e1bfff15 	stw	r6,-4(fp)
 20018a4:	e03ffb0d 	sth	zero,-20(fp)
 20018a8:	e03ff815 	stw	zero,-32(fp)
 20018ac:	e03ffc15 	stw	zero,-16(fp)
 20018b0:	e0bffe17 	ldw	r2,-8(fp)
 20018b4:	e0bff915 	stw	r2,-28(fp)
 20018b8:	e0bffd17 	ldw	r2,-12(fp)
 20018bc:	10c00003 	ldbu	r3,0(r2)
 20018c0:	e0bff917 	ldw	r2,-28(fp)
 20018c4:	10c00005 	stb	r3,0(r2)
 20018c8:	e0bff917 	ldw	r2,-28(fp)
 20018cc:	10800044 	addi	r2,r2,1
 20018d0:	e0fffd17 	ldw	r3,-12(fp)
 20018d4:	18c00043 	ldbu	r3,1(r3)
 20018d8:	10c00005 	stb	r3,0(r2)
 20018dc:	e0bff917 	ldw	r2,-28(fp)
 20018e0:	10800084 	addi	r2,r2,2
 20018e4:	e0bff915 	stw	r2,-28(fp)
 20018e8:	e0bffd17 	ldw	r2,-12(fp)
 20018ec:	10800084 	addi	r2,r2,2
 20018f0:	1009883a 	mov	r4,r2
 20018f4:	017fffc4 	movi	r5,-1
 20018f8:	2004a000 	call	2004a00 <StrToU32Def>
 20018fc:	e0bffc15 	stw	r2,-16(fp)
 2001900:	e0bffc17 	ldw	r2,-16(fp)
 2001904:	e13ff917 	ldw	r4,-28(fp)
 2001908:	01408174 	movhi	r5,517
 200190c:	29616e04 	addi	r5,r5,-31304
 2001910:	100d883a 	mov	r6,r2
 2001914:	20347b80 	call	20347b8 <sprintf>
 2001918:	1007883a 	mov	r3,r2
 200191c:	e0bff917 	ldw	r2,-28(fp)
 2001920:	10c5883a 	add	r2,r2,r3
 2001924:	e0bff915 	stw	r2,-28(fp)
 2001928:	e0bffc17 	ldw	r2,-16(fp)
 200192c:	10800098 	cmpnei	r2,r2,2
 2001930:	1000391e 	bne	r2,zero,2001a18 <HandleKursGetColorDegradeAndFailure+0x190>
 2001934:	008081b4 	movhi	r2,518
 2001938:	10ad3504 	addi	r2,r2,-19244
 200193c:	10800817 	ldw	r2,32(r2)
 2001940:	e0bffa15 	stw	r2,-24(fp)
 2001944:	008081b4 	movhi	r2,518
 2001948:	10ad3504 	addi	r2,r2,-19244
 200194c:	1080138b 	ldhu	r2,78(r2)
 2001950:	e0bffb0d 	sth	r2,-20(fp)
 2001954:	e03ff815 	stw	zero,-32(fp)
 2001958:	00002b06 	br	2001a08 <HandleKursGetColorDegradeAndFailure+0x180>
 200195c:	e0bffa17 	ldw	r2,-24(fp)
 2001960:	10800717 	ldw	r2,28(r2)
 2001964:	1000101e 	bne	r2,zero,20019a8 <HandleKursGetColorDegradeAndFailure+0x120>
 2001968:	e0bff917 	ldw	r2,-28(fp)
 200196c:	00c00ec4 	movi	r3,59
 2001970:	10c00005 	stb	r3,0(r2)
 2001974:	00c00c04 	movi	r3,48
 2001978:	10c00045 	stb	r3,1(r2)
 200197c:	00c01004 	movi	r3,64
 2001980:	10c00085 	stb	r3,2(r2)
 2001984:	00c00c04 	movi	r3,48
 2001988:	10c000c5 	stb	r3,3(r2)
 200198c:	10000105 	stb	zero,4(r2)
 2001990:	00800104 	movi	r2,4
 2001994:	1007883a 	mov	r3,r2
 2001998:	e0bff917 	ldw	r2,-28(fp)
 200199c:	10c5883a 	add	r2,r2,r3
 20019a0:	e0bff915 	stw	r2,-28(fp)
 20019a4:	00001206 	br	20019f0 <HandleKursGetColorDegradeAndFailure+0x168>
 20019a8:	e0bffa17 	ldw	r2,-24(fp)
 20019ac:	10800717 	ldw	r2,28(r2)
 20019b0:	1080008b 	ldhu	r2,2(r2)
 20019b4:	10ffffcc 	andi	r3,r2,65535
 20019b8:	e0bffa17 	ldw	r2,-24(fp)
 20019bc:	10800717 	ldw	r2,28(r2)
 20019c0:	1080010b 	ldhu	r2,4(r2)
 20019c4:	10bfffcc 	andi	r2,r2,65535
 20019c8:	e13ff917 	ldw	r4,-28(fp)
 20019cc:	01408174 	movhi	r5,517
 20019d0:	29617904 	addi	r5,r5,-31260
 20019d4:	180d883a 	mov	r6,r3
 20019d8:	100f883a 	mov	r7,r2
 20019dc:	20347b80 	call	20347b8 <sprintf>
 20019e0:	1007883a 	mov	r3,r2
 20019e4:	e0bff917 	ldw	r2,-28(fp)
 20019e8:	10c5883a 	add	r2,r2,r3
 20019ec:	e0bff915 	stw	r2,-28(fp)
 20019f0:	e0bff817 	ldw	r2,-32(fp)
 20019f4:	10800044 	addi	r2,r2,1
 20019f8:	e0bff815 	stw	r2,-32(fp)
 20019fc:	e0bffa17 	ldw	r2,-24(fp)
 2001a00:	10800904 	addi	r2,r2,36
 2001a04:	e0bffa15 	stw	r2,-24(fp)
 2001a08:	e0bffb0b 	ldhu	r2,-20(fp)
 2001a0c:	e0fff817 	ldw	r3,-32(fp)
 2001a10:	18bfd216 	blt	r3,r2,200195c <__alt_data_end+0xff00195c>
 2001a14:	00000e06 	br	2001a50 <HandleKursGetColorDegradeAndFailure+0x1c8>
 2001a18:	e0bff917 	ldw	r2,-28(fp)
 2001a1c:	00c00ec4 	movi	r3,59
 2001a20:	10c00005 	stb	r3,0(r2)
 2001a24:	00c01384 	movi	r3,78
 2001a28:	10c00045 	stb	r3,1(r2)
 2001a2c:	00c01044 	movi	r3,65
 2001a30:	10c00085 	stb	r3,2(r2)
 2001a34:	100000c5 	stb	zero,3(r2)
 2001a38:	e13ff917 	ldw	r4,-28(fp)
 2001a3c:	2034a180 	call	2034a18 <strlen>
 2001a40:	1007883a 	mov	r3,r2
 2001a44:	e0bff917 	ldw	r2,-28(fp)
 2001a48:	10c5883a 	add	r2,r2,r3
 2001a4c:	e0bff915 	stw	r2,-28(fp)
 2001a50:	e0bff917 	ldw	r2,-28(fp)
 2001a54:	10c00044 	addi	r3,r2,1
 2001a58:	e0fff915 	stw	r3,-28(fp)
 2001a5c:	00c00ec4 	movi	r3,59
 2001a60:	10c00005 	stb	r3,0(r2)
 2001a64:	10000045 	stb	zero,1(r2)
 2001a68:	e0fff917 	ldw	r3,-28(fp)
 2001a6c:	e0bffe17 	ldw	r2,-8(fp)
 2001a70:	1885c83a 	sub	r2,r3,r2
 2001a74:	10bfffcc 	andi	r2,r2,65535
 2001a78:	e13ffe17 	ldw	r4,-8(fp)
 2001a7c:	100b883a 	mov	r5,r2
 2001a80:	2005a080 	call	2005a08 <get_crc16_ascii>
 2001a84:	10bfffcc 	andi	r2,r2,65535
 2001a88:	e13ff917 	ldw	r4,-28(fp)
 2001a8c:	01408174 	movhi	r5,517
 2001a90:	29616d04 	addi	r5,r5,-31308
 2001a94:	100d883a 	mov	r6,r2
 2001a98:	20347b80 	call	20347b8 <sprintf>
 2001a9c:	1007883a 	mov	r3,r2
 2001aa0:	e0bff917 	ldw	r2,-28(fp)
 2001aa4:	10c5883a 	add	r2,r2,r3
 2001aa8:	e0bff915 	stw	r2,-28(fp)
 2001aac:	e0fff917 	ldw	r3,-28(fp)
 2001ab0:	e0bffe17 	ldw	r2,-8(fp)
 2001ab4:	1887c83a 	sub	r3,r3,r2
 2001ab8:	e0bfff17 	ldw	r2,-4(fp)
 2001abc:	10c00015 	stw	r3,0(r2)
 2001ac0:	e037883a 	mov	sp,fp
 2001ac4:	dfc00117 	ldw	ra,4(sp)
 2001ac8:	df000017 	ldw	fp,0(sp)
 2001acc:	dec00204 	addi	sp,sp,8
 2001ad0:	f800283a 	ret

02001ad4 <HandleKursWriteLangPackCommand>:
 2001ad4:	defff704 	addi	sp,sp,-36
 2001ad8:	dfc00815 	stw	ra,32(sp)
 2001adc:	df000715 	stw	fp,28(sp)
 2001ae0:	df000704 	addi	fp,sp,28
 2001ae4:	e13ffd15 	stw	r4,-12(fp)
 2001ae8:	e17ffe15 	stw	r5,-8(fp)
 2001aec:	e1bfff15 	stw	r6,-4(fp)
 2001af0:	e0bffe17 	ldw	r2,-8(fp)
 2001af4:	e0bff915 	stw	r2,-28(fp)
 2001af8:	e0bffd17 	ldw	r2,-12(fp)
 2001afc:	10c00003 	ldbu	r3,0(r2)
 2001b00:	e0bff917 	ldw	r2,-28(fp)
 2001b04:	10c00005 	stb	r3,0(r2)
 2001b08:	e0bff917 	ldw	r2,-28(fp)
 2001b0c:	10800044 	addi	r2,r2,1
 2001b10:	e0fffd17 	ldw	r3,-12(fp)
 2001b14:	18c00043 	ldbu	r3,1(r3)
 2001b18:	10c00005 	stb	r3,0(r2)
 2001b1c:	e0bff917 	ldw	r2,-28(fp)
 2001b20:	10800084 	addi	r2,r2,2
 2001b24:	e0bff915 	stw	r2,-28(fp)
 2001b28:	e0bffd17 	ldw	r2,-12(fp)
 2001b2c:	10800084 	addi	r2,r2,2
 2001b30:	1009883a 	mov	r4,r2
 2001b34:	017fffc4 	movi	r5,-1
 2001b38:	2004a000 	call	2004a00 <StrToU32Def>
 2001b3c:	e0bffa15 	stw	r2,-24(fp)
 2001b40:	e13ffd17 	ldw	r4,-12(fp)
 2001b44:	01400ec4 	movi	r5,59
 2001b48:	20348240 	call	2034824 <strchr>
 2001b4c:	e0bffb15 	stw	r2,-20(fp)
 2001b50:	e0bffa17 	ldw	r2,-24(fp)
 2001b54:	108025a8 	cmpgeui	r2,r2,150
 2001b58:	1000431e 	bne	r2,zero,2001c68 <HandleKursWriteLangPackCommand+0x194>
 2001b5c:	008081b4 	movhi	r2,518
 2001b60:	10ad3504 	addi	r2,r2,-19244
 2001b64:	10801903 	ldbu	r2,100(r2)
 2001b68:	10803fcc 	andi	r2,r2,255
 2001b6c:	1080201c 	xori	r2,r2,128
 2001b70:	10bfe004 	addi	r2,r2,-128
 2001b74:	10003c26 	beq	r2,zero,2001c68 <HandleKursWriteLangPackCommand+0x194>
 2001b78:	e0bffb17 	ldw	r2,-20(fp)
 2001b7c:	10003a26 	beq	r2,zero,2001c68 <HandleKursWriteLangPackCommand+0x194>
 2001b80:	e0bffb17 	ldw	r2,-20(fp)
 2001b84:	10800044 	addi	r2,r2,1
 2001b88:	e0bffb15 	stw	r2,-20(fp)
 2001b8c:	e13ffb17 	ldw	r4,-20(fp)
 2001b90:	2034a180 	call	2034a18 <strlen>
 2001b94:	e0bffc15 	stw	r2,-16(fp)
 2001b98:	e0bffc17 	ldw	r2,-16(fp)
 2001b9c:	10804018 	cmpnei	r2,r2,256
 2001ba0:	1000261e 	bne	r2,zero,2001c3c <HandleKursWriteLangPackCommand+0x168>
 2001ba4:	e0bffa17 	ldw	r2,-24(fp)
 2001ba8:	10000a1e 	bne	r2,zero,2001bd4 <HandleKursWriteLangPackCommand+0x100>
 2001bac:	e13ffb17 	ldw	r4,-20(fp)
 2001bb0:	017fffc4 	movi	r5,-1
 2001bb4:	2004a000 	call	2004a00 <StrToU32Def>
 2001bb8:	d0a02c15 	stw	r2,-32592(gp)
 2001bbc:	010081b4 	movhi	r4,518
 2001bc0:	212d5684 	addi	r4,r4,-19110
 2001bc4:	01403fc4 	movi	r5,255
 2001bc8:	01800104 	movi	r6,4
 2001bcc:	20344c40 	call	20344c4 <memset>
 2001bd0:	00000406 	br	2001be4 <HandleKursWriteLangPackCommand+0x110>
 2001bd4:	d0a02c17 	ldw	r2,-32592(gp)
 2001bd8:	e0fffa17 	ldw	r3,-24(fp)
 2001bdc:	1880011e 	bne	r3,r2,2001be4 <HandleKursWriteLangPackCommand+0x110>
 2001be0:	20280280 	call	2028028 <KURS_NewLngpackCallback>
 2001be4:	e0bffa17 	ldw	r2,-24(fp)
 2001be8:	1004923a 	slli	r2,r2,8
 2001bec:	10c02104 	addi	r3,r2,132
 2001bf0:	008081b4 	movhi	r2,518
 2001bf4:	10ad3504 	addi	r2,r2,-19244
 2001bf8:	1885883a 	add	r2,r3,r2
 2001bfc:	10800084 	addi	r2,r2,2
 2001c00:	1009883a 	mov	r4,r2
 2001c04:	e17ffb17 	ldw	r5,-20(fp)
 2001c08:	01804004 	movi	r6,256
 2001c0c:	203438c0 	call	203438c <memcpy>
 2001c10:	e0bffa17 	ldw	r2,-24(fp)
 2001c14:	e13ff917 	ldw	r4,-28(fp)
 2001c18:	01408174 	movhi	r5,517
 2001c1c:	29617b04 	addi	r5,r5,-31252
 2001c20:	100d883a 	mov	r6,r2
 2001c24:	20347b80 	call	20347b8 <sprintf>
 2001c28:	1007883a 	mov	r3,r2
 2001c2c:	e0bff917 	ldw	r2,-28(fp)
 2001c30:	10c5883a 	add	r2,r2,r3
 2001c34:	e0bff915 	stw	r2,-28(fp)
 2001c38:	00001906 	br	2001ca0 <HandleKursWriteLangPackCommand+0x1cc>
 2001c3c:	e0bffa17 	ldw	r2,-24(fp)
 2001c40:	e13ff917 	ldw	r4,-28(fp)
 2001c44:	01408174 	movhi	r5,517
 2001c48:	29617d04 	addi	r5,r5,-31244
 2001c4c:	100d883a 	mov	r6,r2
 2001c50:	20347b80 	call	20347b8 <sprintf>
 2001c54:	1007883a 	mov	r3,r2
 2001c58:	e0bff917 	ldw	r2,-28(fp)
 2001c5c:	10c5883a 	add	r2,r2,r3
 2001c60:	e0bff915 	stw	r2,-28(fp)
 2001c64:	00000e06 	br	2001ca0 <HandleKursWriteLangPackCommand+0x1cc>
 2001c68:	e0bffa17 	ldw	r2,-24(fp)
 2001c6c:	10bfffd8 	cmpnei	r2,r2,-1
 2001c70:	1000011e 	bne	r2,zero,2001c78 <HandleKursWriteLangPackCommand+0x1a4>
 2001c74:	e03ffa15 	stw	zero,-24(fp)
 2001c78:	e0bffa17 	ldw	r2,-24(fp)
 2001c7c:	e13ff917 	ldw	r4,-28(fp)
 2001c80:	01408174 	movhi	r5,517
 2001c84:	29617d04 	addi	r5,r5,-31244
 2001c88:	100d883a 	mov	r6,r2
 2001c8c:	20347b80 	call	20347b8 <sprintf>
 2001c90:	1007883a 	mov	r3,r2
 2001c94:	e0bff917 	ldw	r2,-28(fp)
 2001c98:	10c5883a 	add	r2,r2,r3
 2001c9c:	e0bff915 	stw	r2,-28(fp)
 2001ca0:	e0fff917 	ldw	r3,-28(fp)
 2001ca4:	e0bffe17 	ldw	r2,-8(fp)
 2001ca8:	1885c83a 	sub	r2,r3,r2
 2001cac:	10bfffcc 	andi	r2,r2,65535
 2001cb0:	e13ffe17 	ldw	r4,-8(fp)
 2001cb4:	100b883a 	mov	r5,r2
 2001cb8:	2005a080 	call	2005a08 <get_crc16_ascii>
 2001cbc:	10bfffcc 	andi	r2,r2,65535
 2001cc0:	e13ff917 	ldw	r4,-28(fp)
 2001cc4:	01408174 	movhi	r5,517
 2001cc8:	29617f04 	addi	r5,r5,-31236
 2001ccc:	100d883a 	mov	r6,r2
 2001cd0:	20347b80 	call	20347b8 <sprintf>
 2001cd4:	1007883a 	mov	r3,r2
 2001cd8:	e0bff917 	ldw	r2,-28(fp)
 2001cdc:	10c5883a 	add	r2,r2,r3
 2001ce0:	e0bff915 	stw	r2,-28(fp)
 2001ce4:	e0fff917 	ldw	r3,-28(fp)
 2001ce8:	e0bffe17 	ldw	r2,-8(fp)
 2001cec:	1887c83a 	sub	r3,r3,r2
 2001cf0:	e0bfff17 	ldw	r2,-4(fp)
 2001cf4:	10c00015 	stw	r3,0(r2)
 2001cf8:	e037883a 	mov	sp,fp
 2001cfc:	dfc00117 	ldw	ra,4(sp)
 2001d00:	df000017 	ldw	fp,0(sp)
 2001d04:	dec00204 	addi	sp,sp,8
 2001d08:	f800283a 	ret
 2001d0c:	deffff04 	addi	sp,sp,-4
 2001d10:	df000015 	stw	fp,0(sp)
 2001d14:	d839883a 	mov	fp,sp
 2001d18:	e037883a 	mov	sp,fp
 2001d1c:	df000017 	ldw	fp,0(sp)
 2001d20:	dec00104 	addi	sp,sp,4
 2001d24:	f800283a 	ret

02001d28 <HandleKursReadLangPackCommand>:
 2001d28:	defff704 	addi	sp,sp,-36
 2001d2c:	dfc00815 	stw	ra,32(sp)
 2001d30:	df000715 	stw	fp,28(sp)
 2001d34:	df000704 	addi	fp,sp,28
 2001d38:	e13ffd15 	stw	r4,-12(fp)
 2001d3c:	e17ffe15 	stw	r5,-8(fp)
 2001d40:	e1bfff15 	stw	r6,-4(fp)
 2001d44:	e0bffe17 	ldw	r2,-8(fp)
 2001d48:	e0bff915 	stw	r2,-28(fp)
 2001d4c:	e0bffd17 	ldw	r2,-12(fp)
 2001d50:	10c00003 	ldbu	r3,0(r2)
 2001d54:	e0bff917 	ldw	r2,-28(fp)
 2001d58:	10c00005 	stb	r3,0(r2)
 2001d5c:	e0bff917 	ldw	r2,-28(fp)
 2001d60:	10800044 	addi	r2,r2,1
 2001d64:	e0fffd17 	ldw	r3,-12(fp)
 2001d68:	18c00043 	ldbu	r3,1(r3)
 2001d6c:	10c00005 	stb	r3,0(r2)
 2001d70:	e0bff917 	ldw	r2,-28(fp)
 2001d74:	10800084 	addi	r2,r2,2
 2001d78:	e0bff915 	stw	r2,-28(fp)
 2001d7c:	e0bffd17 	ldw	r2,-12(fp)
 2001d80:	10800084 	addi	r2,r2,2
 2001d84:	1009883a 	mov	r4,r2
 2001d88:	017fffc4 	movi	r5,-1
 2001d8c:	2004a000 	call	2004a00 <StrToU32Def>
 2001d90:	e0bffc15 	stw	r2,-16(fp)
 2001d94:	e13ff917 	ldw	r4,-28(fp)
 2001d98:	01408174 	movhi	r5,517
 2001d9c:	29618004 	addi	r5,r5,-31232
 2001da0:	e1bffc17 	ldw	r6,-16(fp)
 2001da4:	20347b80 	call	20347b8 <sprintf>
 2001da8:	1007883a 	mov	r3,r2
 2001dac:	e0bff917 	ldw	r2,-28(fp)
 2001db0:	10c5883a 	add	r2,r2,r3
 2001db4:	e0bff915 	stw	r2,-28(fp)
 2001db8:	e0bffc17 	ldw	r2,-16(fp)
 2001dbc:	108025a8 	cmpgeui	r2,r2,150
 2001dc0:	10004c1e 	bne	r2,zero,2001ef4 <HandleKursReadLangPackCommand+0x1cc>
 2001dc4:	e0bffc17 	ldw	r2,-16(fp)
 2001dc8:	1004923a 	slli	r2,r2,8
 2001dcc:	10c02104 	addi	r3,r2,132
 2001dd0:	008081b4 	movhi	r2,518
 2001dd4:	10ad3504 	addi	r2,r2,-19244
 2001dd8:	1885883a 	add	r2,r3,r2
 2001ddc:	10800084 	addi	r2,r2,2
 2001de0:	e0bffa15 	stw	r2,-24(fp)
 2001de4:	e03ffb15 	stw	zero,-20(fp)
 2001de8:	e03ffb15 	stw	zero,-20(fp)
 2001dec:	00002f06 	br	2001eac <HandleKursReadLangPackCommand+0x184>
 2001df0:	e0bffc17 	ldw	r2,-16(fp)
 2001df4:	10000b26 	beq	r2,zero,2001e24 <HandleKursReadLangPackCommand+0xfc>
 2001df8:	e0bffa17 	ldw	r2,-24(fp)
 2001dfc:	10800003 	ldbu	r2,0(r2)
 2001e00:	10803fcc 	andi	r2,r2,255
 2001e04:	1080201c 	xori	r2,r2,128
 2001e08:	10bfe004 	addi	r2,r2,-128
 2001e0c:	10800ed8 	cmpnei	r2,r2,59
 2001e10:	1000041e 	bne	r2,zero,2001e24 <HandleKursReadLangPackCommand+0xfc>
 2001e14:	e0bff917 	ldw	r2,-28(fp)
 2001e18:	00c00084 	movi	r3,2
 2001e1c:	10c00005 	stb	r3,0(r2)
 2001e20:	00001906 	br	2001e88 <HandleKursReadLangPackCommand+0x160>
 2001e24:	e0bffa17 	ldw	r2,-24(fp)
 2001e28:	10800003 	ldbu	r2,0(r2)
 2001e2c:	10803fcc 	andi	r2,r2,255
 2001e30:	1080201c 	xori	r2,r2,128
 2001e34:	10bfe004 	addi	r2,r2,-128
 2001e38:	10800358 	cmpnei	r2,r2,13
 2001e3c:	1000041e 	bne	r2,zero,2001e50 <HandleKursReadLangPackCommand+0x128>
 2001e40:	e0bff917 	ldw	r2,-28(fp)
 2001e44:	00c00044 	movi	r3,1
 2001e48:	10c00005 	stb	r3,0(r2)
 2001e4c:	00000e06 	br	2001e88 <HandleKursReadLangPackCommand+0x160>
 2001e50:	e0bffa17 	ldw	r2,-24(fp)
 2001e54:	10800003 	ldbu	r2,0(r2)
 2001e58:	10803fcc 	andi	r2,r2,255
 2001e5c:	1080201c 	xori	r2,r2,128
 2001e60:	10bfe004 	addi	r2,r2,-128
 2001e64:	1000041e 	bne	r2,zero,2001e78 <HandleKursReadLangPackCommand+0x150>
 2001e68:	e0bff917 	ldw	r2,-28(fp)
 2001e6c:	00c000c4 	movi	r3,3
 2001e70:	10c00005 	stb	r3,0(r2)
 2001e74:	00000406 	br	2001e88 <HandleKursReadLangPackCommand+0x160>
 2001e78:	e0bffa17 	ldw	r2,-24(fp)
 2001e7c:	10c00003 	ldbu	r3,0(r2)
 2001e80:	e0bff917 	ldw	r2,-28(fp)
 2001e84:	10c00005 	stb	r3,0(r2)
 2001e88:	e0bffb17 	ldw	r2,-20(fp)
 2001e8c:	10800044 	addi	r2,r2,1
 2001e90:	e0bffb15 	stw	r2,-20(fp)
 2001e94:	e0bffa17 	ldw	r2,-24(fp)
 2001e98:	10800044 	addi	r2,r2,1
 2001e9c:	e0bffa15 	stw	r2,-24(fp)
 2001ea0:	e0bff917 	ldw	r2,-28(fp)
 2001ea4:	10800044 	addi	r2,r2,1
 2001ea8:	e0bff915 	stw	r2,-28(fp)
 2001eac:	e0bffb17 	ldw	r2,-20(fp)
 2001eb0:	10804010 	cmplti	r2,r2,256
 2001eb4:	103fce1e 	bne	r2,zero,2001df0 <__alt_data_end+0xff001df0>
 2001eb8:	00c04004 	movi	r3,256
 2001ebc:	e0bffb17 	ldw	r2,-20(fp)
 2001ec0:	1885c83a 	sub	r2,r3,r2
 2001ec4:	e13ff917 	ldw	r4,-28(fp)
 2001ec8:	014000c4 	movi	r5,3
 2001ecc:	100d883a 	mov	r6,r2
 2001ed0:	20344c40 	call	20344c4 <memset>
 2001ed4:	00c04004 	movi	r3,256
 2001ed8:	e0bffb17 	ldw	r2,-20(fp)
 2001edc:	1885c83a 	sub	r2,r3,r2
 2001ee0:	1007883a 	mov	r3,r2
 2001ee4:	e0bff917 	ldw	r2,-28(fp)
 2001ee8:	10c5883a 	add	r2,r2,r3
 2001eec:	e0bff915 	stw	r2,-28(fp)
 2001ef0:	00000c06 	br	2001f24 <HandleKursReadLangPackCommand+0x1fc>
 2001ef4:	e0bff917 	ldw	r2,-28(fp)
 2001ef8:	00c01384 	movi	r3,78
 2001efc:	10c00005 	stb	r3,0(r2)
 2001f00:	00c01044 	movi	r3,65
 2001f04:	10c00045 	stb	r3,1(r2)
 2001f08:	10000085 	stb	zero,2(r2)
 2001f0c:	e13ff917 	ldw	r4,-28(fp)
 2001f10:	2034a180 	call	2034a18 <strlen>
 2001f14:	1007883a 	mov	r3,r2
 2001f18:	e0bff917 	ldw	r2,-28(fp)
 2001f1c:	10c5883a 	add	r2,r2,r3
 2001f20:	e0bff915 	stw	r2,-28(fp)
 2001f24:	e0bff917 	ldw	r2,-28(fp)
 2001f28:	10c00044 	addi	r3,r2,1
 2001f2c:	e0fff915 	stw	r3,-28(fp)
 2001f30:	00c00ec4 	movi	r3,59
 2001f34:	10c00005 	stb	r3,0(r2)
 2001f38:	10000045 	stb	zero,1(r2)
 2001f3c:	e0fff917 	ldw	r3,-28(fp)
 2001f40:	e0bffe17 	ldw	r2,-8(fp)
 2001f44:	1885c83a 	sub	r2,r3,r2
 2001f48:	10bfffcc 	andi	r2,r2,65535
 2001f4c:	e13ffe17 	ldw	r4,-8(fp)
 2001f50:	100b883a 	mov	r5,r2
 2001f54:	2005a080 	call	2005a08 <get_crc16_ascii>
 2001f58:	10bfffcc 	andi	r2,r2,65535
 2001f5c:	e13ff917 	ldw	r4,-28(fp)
 2001f60:	01408174 	movhi	r5,517
 2001f64:	29616d04 	addi	r5,r5,-31308
 2001f68:	100d883a 	mov	r6,r2
 2001f6c:	20347b80 	call	20347b8 <sprintf>
 2001f70:	1007883a 	mov	r3,r2
 2001f74:	e0bff917 	ldw	r2,-28(fp)
 2001f78:	10c5883a 	add	r2,r2,r3
 2001f7c:	e0bff915 	stw	r2,-28(fp)
 2001f80:	e0fff917 	ldw	r3,-28(fp)
 2001f84:	e0bffe17 	ldw	r2,-8(fp)
 2001f88:	1887c83a 	sub	r3,r3,r2
 2001f8c:	e0bfff17 	ldw	r2,-4(fp)
 2001f90:	10c00015 	stw	r3,0(r2)
 2001f94:	e037883a 	mov	sp,fp
 2001f98:	dfc00117 	ldw	ra,4(sp)
 2001f9c:	df000017 	ldw	fp,0(sp)
 2001fa0:	dec00204 	addi	sp,sp,8
 2001fa4:	f800283a 	ret

02001fa8 <HandleKursUnknownCommand>:
 2001fa8:	defffb04 	addi	sp,sp,-20
 2001fac:	df000415 	stw	fp,16(sp)
 2001fb0:	df000404 	addi	fp,sp,16
 2001fb4:	e13ffd15 	stw	r4,-12(fp)
 2001fb8:	e17ffe15 	stw	r5,-8(fp)
 2001fbc:	e1bfff15 	stw	r6,-4(fp)
 2001fc0:	e0bffe17 	ldw	r2,-8(fp)
 2001fc4:	e0bffc15 	stw	r2,-16(fp)
 2001fc8:	e0bffd17 	ldw	r2,-12(fp)
 2001fcc:	10c00003 	ldbu	r3,0(r2)
 2001fd0:	e0bffc17 	ldw	r2,-16(fp)
 2001fd4:	10c00005 	stb	r3,0(r2)
 2001fd8:	e0bffc17 	ldw	r2,-16(fp)
 2001fdc:	10800044 	addi	r2,r2,1
 2001fe0:	e0fffd17 	ldw	r3,-12(fp)
 2001fe4:	18c00043 	ldbu	r3,1(r3)
 2001fe8:	10c00005 	stb	r3,0(r2)
 2001fec:	e0bffc17 	ldw	r2,-16(fp)
 2001ff0:	10800084 	addi	r2,r2,2
 2001ff4:	e0bffc15 	stw	r2,-16(fp)
 2001ff8:	e0bffc17 	ldw	r2,-16(fp)
 2001ffc:	00c01384 	movi	r3,78
 2002000:	10c00005 	stb	r3,0(r2)
 2002004:	00c01044 	movi	r3,65
 2002008:	10c00045 	stb	r3,1(r2)
 200200c:	00c00344 	movi	r3,13
 2002010:	10c00085 	stb	r3,2(r2)
 2002014:	100000c5 	stb	zero,3(r2)
 2002018:	008000c4 	movi	r2,3
 200201c:	1007883a 	mov	r3,r2
 2002020:	e0bffc17 	ldw	r2,-16(fp)
 2002024:	10c5883a 	add	r2,r2,r3
 2002028:	e0bffc15 	stw	r2,-16(fp)
 200202c:	e0fffc17 	ldw	r3,-16(fp)
 2002030:	e0bffe17 	ldw	r2,-8(fp)
 2002034:	1887c83a 	sub	r3,r3,r2
 2002038:	e0bfff17 	ldw	r2,-4(fp)
 200203c:	10c00015 	stw	r3,0(r2)
 2002040:	e037883a 	mov	sp,fp
 2002044:	df000017 	ldw	fp,0(sp)
 2002048:	dec00104 	addi	sp,sp,4
 200204c:	f800283a 	ret

02002050 <HandleKursExtendedRdDeviceClass>:
 2002050:	defff904 	addi	sp,sp,-28
 2002054:	dfc00615 	stw	ra,24(sp)
 2002058:	df000515 	stw	fp,20(sp)
 200205c:	df000504 	addi	fp,sp,20
 2002060:	e13ffd15 	stw	r4,-12(fp)
 2002064:	e17ffe15 	stw	r5,-8(fp)
 2002068:	e1bfff15 	stw	r6,-4(fp)
 200206c:	e0bffe17 	ldw	r2,-8(fp)
 2002070:	e0bffb15 	stw	r2,-20(fp)
 2002074:	e0bffd17 	ldw	r2,-12(fp)
 2002078:	10c00003 	ldbu	r3,0(r2)
 200207c:	e0bffb17 	ldw	r2,-20(fp)
 2002080:	10c00005 	stb	r3,0(r2)
 2002084:	e0bffb17 	ldw	r2,-20(fp)
 2002088:	10800044 	addi	r2,r2,1
 200208c:	e0fffd17 	ldw	r3,-12(fp)
 2002090:	18c00043 	ldbu	r3,1(r3)
 2002094:	10c00005 	stb	r3,0(r2)
 2002098:	e0bffb17 	ldw	r2,-20(fp)
 200209c:	10800084 	addi	r2,r2,2
 20020a0:	e0bffb15 	stw	r2,-20(fp)
 20020a4:	e13ffb17 	ldw	r4,-20(fp)
 20020a8:	01408174 	movhi	r5,517
 20020ac:	29618104 	addi	r5,r5,-31228
 20020b0:	018081b4 	movhi	r6,518
 20020b4:	31ad3784 	addi	r6,r6,-19234
 20020b8:	20347b80 	call	20347b8 <sprintf>
 20020bc:	1007883a 	mov	r3,r2
 20020c0:	e0bffb17 	ldw	r2,-20(fp)
 20020c4:	10c5883a 	add	r2,r2,r3
 20020c8:	e0bffb15 	stw	r2,-20(fp)
 20020cc:	008081b4 	movhi	r2,518
 20020d0:	10ad3504 	addi	r2,r2,-19244
 20020d4:	10801903 	ldbu	r2,100(r2)
 20020d8:	10803fcc 	andi	r2,r2,255
 20020dc:	1080201c 	xori	r2,r2,128
 20020e0:	10bfe004 	addi	r2,r2,-128
 20020e4:	10000e26 	beq	r2,zero,2002120 <HandleKursExtendedRdDeviceClass+0xd0>
 20020e8:	e0bffb17 	ldw	r2,-20(fp)
 20020ec:	00c013c4 	movi	r3,79
 20020f0:	10c00005 	stb	r3,0(r2)
 20020f4:	00c012c4 	movi	r3,75
 20020f8:	10c00045 	stb	r3,1(r2)
 20020fc:	00c00ec4 	movi	r3,59
 2002100:	10c00085 	stb	r3,2(r2)
 2002104:	100000c5 	stb	zero,3(r2)
 2002108:	008000c4 	movi	r2,3
 200210c:	1007883a 	mov	r3,r2
 2002110:	e0bffb17 	ldw	r2,-20(fp)
 2002114:	10c5883a 	add	r2,r2,r3
 2002118:	e0bffb15 	stw	r2,-20(fp)
 200211c:	00000d06 	br	2002154 <HandleKursExtendedRdDeviceClass+0x104>
 2002120:	e0bffb17 	ldw	r2,-20(fp)
 2002124:	00c01384 	movi	r3,78
 2002128:	10c00005 	stb	r3,0(r2)
 200212c:	00c01044 	movi	r3,65
 2002130:	10c00045 	stb	r3,1(r2)
 2002134:	00c00ec4 	movi	r3,59
 2002138:	10c00085 	stb	r3,2(r2)
 200213c:	100000c5 	stb	zero,3(r2)
 2002140:	008000c4 	movi	r2,3
 2002144:	1007883a 	mov	r3,r2
 2002148:	e0bffb17 	ldw	r2,-20(fp)
 200214c:	10c5883a 	add	r2,r2,r3
 2002150:	e0bffb15 	stw	r2,-20(fp)
 2002154:	008081b4 	movhi	r2,518
 2002158:	10ad3504 	addi	r2,r2,-19244
 200215c:	10801c43 	ldbu	r2,113(r2)
 2002160:	10803fcc 	andi	r2,r2,255
 2002164:	1080201c 	xori	r2,r2,128
 2002168:	10bfe004 	addi	r2,r2,-128
 200216c:	10000e26 	beq	r2,zero,20021a8 <HandleKursExtendedRdDeviceClass+0x158>
 2002170:	e0bffb17 	ldw	r2,-20(fp)
 2002174:	00c013c4 	movi	r3,79
 2002178:	10c00005 	stb	r3,0(r2)
 200217c:	00c012c4 	movi	r3,75
 2002180:	10c00045 	stb	r3,1(r2)
 2002184:	00c00ec4 	movi	r3,59
 2002188:	10c00085 	stb	r3,2(r2)
 200218c:	100000c5 	stb	zero,3(r2)
 2002190:	008000c4 	movi	r2,3
 2002194:	1007883a 	mov	r3,r2
 2002198:	e0bffb17 	ldw	r2,-20(fp)
 200219c:	10c5883a 	add	r2,r2,r3
 20021a0:	e0bffb15 	stw	r2,-20(fp)
 20021a4:	00000d06 	br	20021dc <HandleKursExtendedRdDeviceClass+0x18c>
 20021a8:	e0bffb17 	ldw	r2,-20(fp)
 20021ac:	00c01384 	movi	r3,78
 20021b0:	10c00005 	stb	r3,0(r2)
 20021b4:	00c01044 	movi	r3,65
 20021b8:	10c00045 	stb	r3,1(r2)
 20021bc:	00c00ec4 	movi	r3,59
 20021c0:	10c00085 	stb	r3,2(r2)
 20021c4:	100000c5 	stb	zero,3(r2)
 20021c8:	008000c4 	movi	r2,3
 20021cc:	1007883a 	mov	r3,r2
 20021d0:	e0bffb17 	ldw	r2,-20(fp)
 20021d4:	10c5883a 	add	r2,r2,r3
 20021d8:	e0bffb15 	stw	r2,-20(fp)
 20021dc:	e03ffc15 	stw	zero,-16(fp)
 20021e0:	e03ffc15 	stw	zero,-16(fp)
 20021e4:	00002706 	br	2002284 <HandleKursExtendedRdDeviceClass+0x234>
 20021e8:	008081b4 	movhi	r2,518
 20021ec:	10ad3504 	addi	r2,r2,-19244
 20021f0:	e0fffc17 	ldw	r3,-16(fp)
 20021f4:	10c5883a 	add	r2,r2,r3
 20021f8:	10801904 	addi	r2,r2,100
 20021fc:	10800043 	ldbu	r2,1(r2)
 2002200:	10803fcc 	andi	r2,r2,255
 2002204:	1080201c 	xori	r2,r2,128
 2002208:	10bfe004 	addi	r2,r2,-128
 200220c:	10001a26 	beq	r2,zero,2002278 <HandleKursExtendedRdDeviceClass+0x228>
 2002210:	e0bffc17 	ldw	r2,-16(fp)
 2002214:	10800208 	cmpgei	r2,r2,8
 2002218:	10000c1e 	bne	r2,zero,200224c <HandleKursExtendedRdDeviceClass+0x1fc>
 200221c:	e0bffc17 	ldw	r2,-16(fp)
 2002220:	10800044 	addi	r2,r2,1
 2002224:	e13ffb17 	ldw	r4,-20(fp)
 2002228:	01408174 	movhi	r5,517
 200222c:	29618204 	addi	r5,r5,-31224
 2002230:	100d883a 	mov	r6,r2
 2002234:	20347b80 	call	20347b8 <sprintf>
 2002238:	1007883a 	mov	r3,r2
 200223c:	e0bffb17 	ldw	r2,-20(fp)
 2002240:	10c5883a 	add	r2,r2,r3
 2002244:	e0bffb15 	stw	r2,-20(fp)
 2002248:	00000b06 	br	2002278 <HandleKursExtendedRdDeviceClass+0x228>
 200224c:	e0bffc17 	ldw	r2,-16(fp)
 2002250:	10801704 	addi	r2,r2,92
 2002254:	e13ffb17 	ldw	r4,-20(fp)
 2002258:	01408174 	movhi	r5,517
 200225c:	29618204 	addi	r5,r5,-31224
 2002260:	100d883a 	mov	r6,r2
 2002264:	20347b80 	call	20347b8 <sprintf>
 2002268:	1007883a 	mov	r3,r2
 200226c:	e0bffb17 	ldw	r2,-20(fp)
 2002270:	10c5883a 	add	r2,r2,r3
 2002274:	e0bffb15 	stw	r2,-20(fp)
 2002278:	e0bffc17 	ldw	r2,-16(fp)
 200227c:	10800044 	addi	r2,r2,1
 2002280:	e0bffc15 	stw	r2,-16(fp)
 2002284:	e0bffc17 	ldw	r2,-16(fp)
 2002288:	10800310 	cmplti	r2,r2,12
 200228c:	103fd61e 	bne	r2,zero,20021e8 <__alt_data_end+0xff0021e8>
 2002290:	e0fffb17 	ldw	r3,-20(fp)
 2002294:	e0bffe17 	ldw	r2,-8(fp)
 2002298:	1885c83a 	sub	r2,r3,r2
 200229c:	10bfffcc 	andi	r2,r2,65535
 20022a0:	e13ffe17 	ldw	r4,-8(fp)
 20022a4:	100b883a 	mov	r5,r2
 20022a8:	2005a080 	call	2005a08 <get_crc16_ascii>
 20022ac:	10bfffcc 	andi	r2,r2,65535
 20022b0:	e13ffb17 	ldw	r4,-20(fp)
 20022b4:	01408174 	movhi	r5,517
 20022b8:	29616d04 	addi	r5,r5,-31308
 20022bc:	100d883a 	mov	r6,r2
 20022c0:	20347b80 	call	20347b8 <sprintf>
 20022c4:	1007883a 	mov	r3,r2
 20022c8:	e0bffb17 	ldw	r2,-20(fp)
 20022cc:	10c5883a 	add	r2,r2,r3
 20022d0:	e0bffb15 	stw	r2,-20(fp)
 20022d4:	e0fffb17 	ldw	r3,-20(fp)
 20022d8:	e0bffe17 	ldw	r2,-8(fp)
 20022dc:	1887c83a 	sub	r3,r3,r2
 20022e0:	e0bfff17 	ldw	r2,-4(fp)
 20022e4:	10c00015 	stw	r3,0(r2)
 20022e8:	e037883a 	mov	sp,fp
 20022ec:	dfc00117 	ldw	ra,4(sp)
 20022f0:	df000017 	ldw	fp,0(sp)
 20022f4:	dec00204 	addi	sp,sp,8
 20022f8:	f800283a 	ret

020022fc <HandleKursExtendedEnableSetParams>:
 20022fc:	defffa04 	addi	sp,sp,-24
 2002300:	dfc00515 	stw	ra,20(sp)
 2002304:	df000415 	stw	fp,16(sp)
 2002308:	df000404 	addi	fp,sp,16
 200230c:	e13ffd15 	stw	r4,-12(fp)
 2002310:	e17ffe15 	stw	r5,-8(fp)
 2002314:	e1bfff15 	stw	r6,-4(fp)
 2002318:	e0bffe17 	ldw	r2,-8(fp)
 200231c:	e0bffc15 	stw	r2,-16(fp)
 2002320:	e0bffd17 	ldw	r2,-12(fp)
 2002324:	10c00003 	ldbu	r3,0(r2)
 2002328:	e0bffc17 	ldw	r2,-16(fp)
 200232c:	10c00005 	stb	r3,0(r2)
 2002330:	e0bffc17 	ldw	r2,-16(fp)
 2002334:	10800044 	addi	r2,r2,1
 2002338:	e0fffd17 	ldw	r3,-12(fp)
 200233c:	18c00043 	ldbu	r3,1(r3)
 2002340:	10c00005 	stb	r3,0(r2)
 2002344:	e0bffc17 	ldw	r2,-16(fp)
 2002348:	10800084 	addi	r2,r2,2
 200234c:	e0bffc15 	stw	r2,-16(fp)
 2002350:	e0bffd17 	ldw	r2,-12(fp)
 2002354:	10800084 	addi	r2,r2,2
 2002358:	e0bffd15 	stw	r2,-12(fp)
 200235c:	e0bffc17 	ldw	r2,-16(fp)
 2002360:	00c013c4 	movi	r3,79
 2002364:	10c00005 	stb	r3,0(r2)
 2002368:	00c012c4 	movi	r3,75
 200236c:	10c00045 	stb	r3,1(r2)
 2002370:	00c00ec4 	movi	r3,59
 2002374:	10c00085 	stb	r3,2(r2)
 2002378:	100000c5 	stb	zero,3(r2)
 200237c:	008000c4 	movi	r2,3
 2002380:	1007883a 	mov	r3,r2
 2002384:	e0bffc17 	ldw	r2,-16(fp)
 2002388:	10c5883a 	add	r2,r2,r3
 200238c:	e0bffc15 	stw	r2,-16(fp)
 2002390:	e0fffc17 	ldw	r3,-16(fp)
 2002394:	e0bffe17 	ldw	r2,-8(fp)
 2002398:	1885c83a 	sub	r2,r3,r2
 200239c:	10bfffcc 	andi	r2,r2,65535
 20023a0:	e13ffe17 	ldw	r4,-8(fp)
 20023a4:	100b883a 	mov	r5,r2
 20023a8:	2005a080 	call	2005a08 <get_crc16_ascii>
 20023ac:	10bfffcc 	andi	r2,r2,65535
 20023b0:	e13ffc17 	ldw	r4,-16(fp)
 20023b4:	01408174 	movhi	r5,517
 20023b8:	29616d04 	addi	r5,r5,-31308
 20023bc:	100d883a 	mov	r6,r2
 20023c0:	20347b80 	call	20347b8 <sprintf>
 20023c4:	1007883a 	mov	r3,r2
 20023c8:	e0bffc17 	ldw	r2,-16(fp)
 20023cc:	10c5883a 	add	r2,r2,r3
 20023d0:	e0bffc15 	stw	r2,-16(fp)
 20023d4:	e0fffc17 	ldw	r3,-16(fp)
 20023d8:	e0bffe17 	ldw	r2,-8(fp)
 20023dc:	1887c83a 	sub	r3,r3,r2
 20023e0:	e0bfff17 	ldw	r2,-4(fp)
 20023e4:	10c00015 	stw	r3,0(r2)
 20023e8:	e037883a 	mov	sp,fp
 20023ec:	dfc00117 	ldw	ra,4(sp)
 20023f0:	df000017 	ldw	fp,0(sp)
 20023f4:	dec00204 	addi	sp,sp,8
 20023f8:	f800283a 	ret

020023fc <HandleKursExtendedConfigRdWr>:
 20023fc:	defff804 	addi	sp,sp,-32
 2002400:	dfc00715 	stw	ra,28(sp)
 2002404:	df000615 	stw	fp,24(sp)
 2002408:	df000604 	addi	fp,sp,24
 200240c:	e13ffd15 	stw	r4,-12(fp)
 2002410:	e17ffe15 	stw	r5,-8(fp)
 2002414:	e1bfff15 	stw	r6,-4(fp)
 2002418:	e0bffe17 	ldw	r2,-8(fp)
 200241c:	e0bffa15 	stw	r2,-24(fp)
 2002420:	e0bffd17 	ldw	r2,-12(fp)
 2002424:	10c00003 	ldbu	r3,0(r2)
 2002428:	e0bffa17 	ldw	r2,-24(fp)
 200242c:	10c00005 	stb	r3,0(r2)
 2002430:	e0bffa17 	ldw	r2,-24(fp)
 2002434:	10800044 	addi	r2,r2,1
 2002438:	e0fffd17 	ldw	r3,-12(fp)
 200243c:	18c00043 	ldbu	r3,1(r3)
 2002440:	10c00005 	stb	r3,0(r2)
 2002444:	e0bffa17 	ldw	r2,-24(fp)
 2002448:	10800084 	addi	r2,r2,2
 200244c:	e0bffa15 	stw	r2,-24(fp)
 2002450:	e0bffd17 	ldw	r2,-12(fp)
 2002454:	10800084 	addi	r2,r2,2
 2002458:	e0bffd15 	stw	r2,-12(fp)
 200245c:	e13ffd17 	ldw	r4,-12(fp)
 2002460:	01408174 	movhi	r5,517
 2002464:	29618304 	addi	r5,r5,-31220
 2002468:	01800244 	movi	r6,9
 200246c:	2034ab00 	call	2034ab0 <strncmp>
 2002470:	10000c1e 	bne	r2,zero,20024a4 <HandleKursExtendedConfigRdWr+0xa8>
 2002474:	e0fffa17 	ldw	r3,-24(fp)
 2002478:	00808174 	movhi	r2,517
 200247c:	10a18604 	addi	r2,r2,-31208
 2002480:	1809883a 	mov	r4,r3
 2002484:	1007883a 	mov	r3,r2
 2002488:	00800404 	movi	r2,16
 200248c:	180b883a 	mov	r5,r3
 2002490:	100d883a 	mov	r6,r2
 2002494:	203438c0 	call	203438c <memcpy>
 2002498:	e0bffa17 	ldw	r2,-24(fp)
 200249c:	108003c4 	addi	r2,r2,15
 20024a0:	e0bffa15 	stw	r2,-24(fp)
 20024a4:	e13ffd17 	ldw	r4,-12(fp)
 20024a8:	01408174 	movhi	r5,517
 20024ac:	29618a04 	addi	r5,r5,-31192
 20024b0:	01800244 	movi	r6,9
 20024b4:	2034ab00 	call	2034ab0 <strncmp>
 20024b8:	10002e1e 	bne	r2,zero,2002574 <HandleKursExtendedConfigRdWr+0x178>
 20024bc:	e0bffd17 	ldw	r2,-12(fp)
 20024c0:	10800284 	addi	r2,r2,10
 20024c4:	1009883a 	mov	r4,r2
 20024c8:	017fffc4 	movi	r5,-1
 20024cc:	2004a000 	call	2004a00 <StrToU32Def>
 20024d0:	e0bffb15 	stw	r2,-20(fp)
 20024d4:	e0bffa17 	ldw	r2,-24(fp)
 20024d8:	00c01384 	movi	r3,78
 20024dc:	10c00005 	stb	r3,0(r2)
 20024e0:	00c01044 	movi	r3,65
 20024e4:	10c00045 	stb	r3,1(r2)
 20024e8:	00c00ec4 	movi	r3,59
 20024ec:	10c00085 	stb	r3,2(r2)
 20024f0:	00c01484 	movi	r3,82
 20024f4:	10c000c5 	stb	r3,3(r2)
 20024f8:	00c01144 	movi	r3,69
 20024fc:	10c00105 	stb	r3,4(r2)
 2002500:	00c01044 	movi	r3,65
 2002504:	10c00145 	stb	r3,5(r2)
 2002508:	00c01104 	movi	r3,68
 200250c:	10c00185 	stb	r3,6(r2)
 2002510:	00c01084 	movi	r3,66
 2002514:	10c001c5 	stb	r3,7(r2)
 2002518:	00c01304 	movi	r3,76
 200251c:	10c00205 	stb	r3,8(r2)
 2002520:	00c013c4 	movi	r3,79
 2002524:	10c00245 	stb	r3,9(r2)
 2002528:	00c010c4 	movi	r3,67
 200252c:	10c00285 	stb	r3,10(r2)
 2002530:	00c012c4 	movi	r3,75
 2002534:	10c002c5 	stb	r3,11(r2)
 2002538:	00c00ec4 	movi	r3,59
 200253c:	10c00305 	stb	r3,12(r2)
 2002540:	10000345 	stb	zero,13(r2)
 2002544:	e0bffa17 	ldw	r2,-24(fp)
 2002548:	10800344 	addi	r2,r2,13
 200254c:	e0bffa15 	stw	r2,-24(fp)
 2002550:	e13ffa17 	ldw	r4,-24(fp)
 2002554:	01408174 	movhi	r5,517
 2002558:	29618204 	addi	r5,r5,-31224
 200255c:	e1bffb17 	ldw	r6,-20(fp)
 2002560:	20347b80 	call	20347b8 <sprintf>
 2002564:	1007883a 	mov	r3,r2
 2002568:	e0bffa17 	ldw	r2,-24(fp)
 200256c:	10c5883a 	add	r2,r2,r3
 2002570:	e0bffa15 	stw	r2,-24(fp)
 2002574:	e13ffd17 	ldw	r4,-12(fp)
 2002578:	01408174 	movhi	r5,517
 200257c:	29618d04 	addi	r5,r5,-31180
 2002580:	01800284 	movi	r6,10
 2002584:	2034ab00 	call	2034ab0 <strncmp>
 2002588:	10000c1e 	bne	r2,zero,20025bc <HandleKursExtendedConfigRdWr+0x1c0>
 200258c:	e0fffa17 	ldw	r3,-24(fp)
 2002590:	00808174 	movhi	r2,517
 2002594:	10a19004 	addi	r2,r2,-31168
 2002598:	1809883a 	mov	r4,r3
 200259c:	1007883a 	mov	r3,r2
 20025a0:	008003c4 	movi	r2,15
 20025a4:	180b883a 	mov	r5,r3
 20025a8:	100d883a 	mov	r6,r2
 20025ac:	203438c0 	call	203438c <memcpy>
 20025b0:	e0bffa17 	ldw	r2,-24(fp)
 20025b4:	10800384 	addi	r2,r2,14
 20025b8:	e0bffa15 	stw	r2,-24(fp)
 20025bc:	e13ffd17 	ldw	r4,-12(fp)
 20025c0:	01408174 	movhi	r5,517
 20025c4:	29619404 	addi	r5,r5,-31152
 20025c8:	01800284 	movi	r6,10
 20025cc:	2034ab00 	call	2034ab0 <strncmp>
 20025d0:	10000c1e 	bne	r2,zero,2002604 <HandleKursExtendedConfigRdWr+0x208>
 20025d4:	e0fffa17 	ldw	r3,-24(fp)
 20025d8:	00808174 	movhi	r2,517
 20025dc:	10a19704 	addi	r2,r2,-31140
 20025e0:	1809883a 	mov	r4,r3
 20025e4:	1007883a 	mov	r3,r2
 20025e8:	00800444 	movi	r2,17
 20025ec:	180b883a 	mov	r5,r3
 20025f0:	100d883a 	mov	r6,r2
 20025f4:	203438c0 	call	203438c <memcpy>
 20025f8:	e0bffa17 	ldw	r2,-24(fp)
 20025fc:	10800404 	addi	r2,r2,16
 2002600:	e0bffa15 	stw	r2,-24(fp)
 2002604:	e13ffd17 	ldw	r4,-12(fp)
 2002608:	01408174 	movhi	r5,517
 200260c:	29619c04 	addi	r5,r5,-31120
 2002610:	018002c4 	movi	r6,11
 2002614:	2034ab00 	call	2034ab0 <strncmp>
 2002618:	10001b1e 	bne	r2,zero,2002688 <HandleKursExtendedConfigRdWr+0x28c>
 200261c:	e0bffd17 	ldw	r2,-12(fp)
 2002620:	10800284 	addi	r2,r2,10
 2002624:	1009883a 	mov	r4,r2
 2002628:	017fffc4 	movi	r5,-1
 200262c:	2004a000 	call	2004a00 <StrToU32Def>
 2002630:	e0bffc15 	stw	r2,-16(fp)
 2002634:	e0fffa17 	ldw	r3,-24(fp)
 2002638:	00808174 	movhi	r2,517
 200263c:	10a19f04 	addi	r2,r2,-31108
 2002640:	1809883a 	mov	r4,r3
 2002644:	1007883a 	mov	r3,r2
 2002648:	008003c4 	movi	r2,15
 200264c:	180b883a 	mov	r5,r3
 2002650:	100d883a 	mov	r6,r2
 2002654:	203438c0 	call	203438c <memcpy>
 2002658:	e0bffa17 	ldw	r2,-24(fp)
 200265c:	10800384 	addi	r2,r2,14
 2002660:	e0bffa15 	stw	r2,-24(fp)
 2002664:	e13ffa17 	ldw	r4,-24(fp)
 2002668:	01408174 	movhi	r5,517
 200266c:	29618204 	addi	r5,r5,-31224
 2002670:	e1bffc17 	ldw	r6,-16(fp)
 2002674:	20347b80 	call	20347b8 <sprintf>
 2002678:	1007883a 	mov	r3,r2
 200267c:	e0bffa17 	ldw	r2,-24(fp)
 2002680:	10c5883a 	add	r2,r2,r3
 2002684:	e0bffa15 	stw	r2,-24(fp)
 2002688:	e13ffd17 	ldw	r4,-12(fp)
 200268c:	01408174 	movhi	r5,517
 2002690:	2961a304 	addi	r5,r5,-31092
 2002694:	018002c4 	movi	r6,11
 2002698:	2034ab00 	call	2034ab0 <strncmp>
 200269c:	10000c1e 	bne	r2,zero,20026d0 <HandleKursExtendedConfigRdWr+0x2d4>
 20026a0:	e0fffa17 	ldw	r3,-24(fp)
 20026a4:	00808174 	movhi	r2,517
 20026a8:	10a1a604 	addi	r2,r2,-31080
 20026ac:	1809883a 	mov	r4,r3
 20026b0:	1007883a 	mov	r3,r2
 20026b4:	00800484 	movi	r2,18
 20026b8:	180b883a 	mov	r5,r3
 20026bc:	100d883a 	mov	r6,r2
 20026c0:	203438c0 	call	203438c <memcpy>
 20026c4:	e0bffa17 	ldw	r2,-24(fp)
 20026c8:	10800444 	addi	r2,r2,17
 20026cc:	e0bffa15 	stw	r2,-24(fp)
 20026d0:	e0fffa17 	ldw	r3,-24(fp)
 20026d4:	e0bffe17 	ldw	r2,-8(fp)
 20026d8:	1885c83a 	sub	r2,r3,r2
 20026dc:	10bfffcc 	andi	r2,r2,65535
 20026e0:	e13ffe17 	ldw	r4,-8(fp)
 20026e4:	100b883a 	mov	r5,r2
 20026e8:	2005a080 	call	2005a08 <get_crc16_ascii>
 20026ec:	10bfffcc 	andi	r2,r2,65535
 20026f0:	e13ffa17 	ldw	r4,-24(fp)
 20026f4:	01408174 	movhi	r5,517
 20026f8:	29616d04 	addi	r5,r5,-31308
 20026fc:	100d883a 	mov	r6,r2
 2002700:	20347b80 	call	20347b8 <sprintf>
 2002704:	1007883a 	mov	r3,r2
 2002708:	e0bffa17 	ldw	r2,-24(fp)
 200270c:	10c5883a 	add	r2,r2,r3
 2002710:	e0bffa15 	stw	r2,-24(fp)
 2002714:	e0fffa17 	ldw	r3,-24(fp)
 2002718:	e0bffe17 	ldw	r2,-8(fp)
 200271c:	1887c83a 	sub	r3,r3,r2
 2002720:	e0bfff17 	ldw	r2,-4(fp)
 2002724:	10c00015 	stw	r3,0(r2)
 2002728:	e037883a 	mov	sp,fp
 200272c:	dfc00117 	ldw	ra,4(sp)
 2002730:	df000017 	ldw	fp,0(sp)
 2002734:	dec00204 	addi	sp,sp,8
 2002738:	f800283a 	ret

0200273c <KURS_RebootDelayed>:
 200273c:	deffff04 	addi	sp,sp,-4
 2002740:	df000015 	stw	fp,0(sp)
 2002744:	d839883a 	mov	fp,sp
 2002748:	e037883a 	mov	sp,fp
 200274c:	df000017 	ldw	fp,0(sp)
 2002750:	dec00104 	addi	sp,sp,4
 2002754:	f800283a 	ret

02002758 <GetStrParamValueItem>:
 2002758:	defff504 	addi	sp,sp,-44
 200275c:	dfc00a15 	stw	ra,40(sp)
 2002760:	df000915 	stw	fp,36(sp)
 2002764:	df000904 	addi	fp,sp,36
 2002768:	e13ffd15 	stw	r4,-12(fp)
 200276c:	e17ffe15 	stw	r5,-8(fp)
 2002770:	e1bfff15 	stw	r6,-4(fp)
 2002774:	e0bffe17 	ldw	r2,-8(fp)
 2002778:	10800817 	ldw	r2,32(r2)
 200277c:	e0bffa15 	stw	r2,-24(fp)
 2002780:	e0bffe17 	ldw	r2,-8(fp)
 2002784:	10800317 	ldw	r2,12(r2)
 2002788:	e0bffb15 	stw	r2,-20(fp)
 200278c:	e03ff90d 	sth	zero,-28(fp)
 2002790:	e0bfff17 	ldw	r2,-4(fp)
 2002794:	10000226 	beq	r2,zero,20027a0 <GetStrParamValueItem+0x48>
 2002798:	e0bffb17 	ldw	r2,-20(fp)
 200279c:	1000021e 	bne	r2,zero,20027a8 <GetStrParamValueItem+0x50>
 20027a0:	e0bff90b 	ldhu	r2,-28(fp)
 20027a4:	0000ba06 	br	2002a90 <GetStrParamValueItem+0x338>
 20027a8:	e0bffe17 	ldw	r2,-8(fp)
 20027ac:	1080018b 	ldhu	r2,6(r2)
 20027b0:	10bfffcc 	andi	r2,r2,65535
 20027b4:	10c00820 	cmpeqi	r3,r2,32
 20027b8:	18005e1e 	bne	r3,zero,2002934 <GetStrParamValueItem+0x1dc>
 20027bc:	10c00848 	cmpgei	r3,r2,33
 20027c0:	18000e1e 	bne	r3,zero,20027fc <GetStrParamValueItem+0xa4>
 20027c4:	10c00120 	cmpeqi	r3,r2,4
 20027c8:	1800281e 	bne	r3,zero,200286c <GetStrParamValueItem+0x114>
 20027cc:	10c00148 	cmpgei	r3,r2,5
 20027d0:	1800051e 	bne	r3,zero,20027e8 <GetStrParamValueItem+0x90>
 20027d4:	10c00060 	cmpeqi	r3,r2,1
 20027d8:	1800241e 	bne	r3,zero,200286c <GetStrParamValueItem+0x114>
 20027dc:	108000a0 	cmpeqi	r2,r2,2
 20027e0:	1000391e 	bne	r2,zero,20028c8 <GetStrParamValueItem+0x170>
 20027e4:	0000a906 	br	2002a8c <GetStrParamValueItem+0x334>
 20027e8:	10c00220 	cmpeqi	r3,r2,8
 20027ec:	1800651e 	bne	r3,zero,2002984 <GetStrParamValueItem+0x22c>
 20027f0:	10800420 	cmpeqi	r2,r2,16
 20027f4:	10003e1e 	bne	r2,zero,20028f0 <GetStrParamValueItem+0x198>
 20027f8:	0000a406 	br	2002a8c <GetStrParamValueItem+0x334>
 20027fc:	10c04020 	cmpeqi	r3,r2,256
 2002800:	1800831e 	bne	r3,zero,2002a10 <GetStrParamValueItem+0x2b8>
 2002804:	10c04048 	cmpgei	r3,r2,257
 2002808:	1800051e 	bne	r3,zero,2002820 <GetStrParamValueItem+0xc8>
 200280c:	10c01020 	cmpeqi	r3,r2,64
 2002810:	1800161e 	bne	r3,zero,200286c <GetStrParamValueItem+0x114>
 2002814:	10802020 	cmpeqi	r2,r2,128
 2002818:	1000461e 	bne	r2,zero,2002934 <GetStrParamValueItem+0x1dc>
 200281c:	00009b06 	br	2002a8c <GetStrParamValueItem+0x334>
 2002820:	10c10020 	cmpeqi	r3,r2,1024
 2002824:	1800031e 	bne	r3,zero,2002834 <GetStrParamValueItem+0xdc>
 2002828:	10820020 	cmpeqi	r2,r2,2048
 200282c:	10000f1e 	bne	r2,zero,200286c <GetStrParamValueItem+0x114>
 2002830:	00009606 	br	2002a8c <GetStrParamValueItem+0x334>
 2002834:	e13ffb17 	ldw	r4,-20(fp)
 2002838:	20800017 	ldw	r2,0(r4)
 200283c:	20c00117 	ldw	r3,4(r4)
 2002840:	e13fff17 	ldw	r4,-4(fp)
 2002844:	01408174 	movhi	r5,517
 2002848:	2961ab04 	addi	r5,r5,-31060
 200284c:	100d883a 	mov	r6,r2
 2002850:	180f883a 	mov	r7,r3
 2002854:	20347b80 	call	20347b8 <sprintf>
 2002858:	1007883a 	mov	r3,r2
 200285c:	e0bff90b 	ldhu	r2,-28(fp)
 2002860:	1885883a 	add	r2,r3,r2
 2002864:	e0bff90d 	sth	r2,-28(fp)
 2002868:	00008806 	br	2002a8c <GetStrParamValueItem+0x334>
 200286c:	e0bffa17 	ldw	r2,-24(fp)
 2002870:	10000b26 	beq	r2,zero,20028a0 <GetStrParamValueItem+0x148>
 2002874:	e0bffb17 	ldw	r2,-20(fp)
 2002878:	10800017 	ldw	r2,0(r2)
 200287c:	e13fff17 	ldw	r4,-4(fp)
 2002880:	e17ffa17 	ldw	r5,-24(fp)
 2002884:	100d883a 	mov	r6,r2
 2002888:	20347b80 	call	20347b8 <sprintf>
 200288c:	1007883a 	mov	r3,r2
 2002890:	e0bff90b 	ldhu	r2,-28(fp)
 2002894:	1885883a 	add	r2,r3,r2
 2002898:	e0bff90d 	sth	r2,-28(fp)
 200289c:	00007b06 	br	2002a8c <GetStrParamValueItem+0x334>
 20028a0:	e0bffb17 	ldw	r2,-20(fp)
 20028a4:	10800017 	ldw	r2,0(r2)
 20028a8:	e13fff17 	ldw	r4,-4(fp)
 20028ac:	100b883a 	mov	r5,r2
 20028b0:	200539c0 	call	200539c <sprintf_u32>
 20028b4:	1007883a 	mov	r3,r2
 20028b8:	e0bff90b 	ldhu	r2,-28(fp)
 20028bc:	1885883a 	add	r2,r3,r2
 20028c0:	e0bff90d 	sth	r2,-28(fp)
 20028c4:	00007106 	br	2002a8c <GetStrParamValueItem+0x334>
 20028c8:	e0bffb17 	ldw	r2,-20(fp)
 20028cc:	10800017 	ldw	r2,0(r2)
 20028d0:	e13fff17 	ldw	r4,-4(fp)
 20028d4:	100b883a 	mov	r5,r2
 20028d8:	2003cf40 	call	2003cf4 <sprintf_s32>
 20028dc:	1007883a 	mov	r3,r2
 20028e0:	e0bff90b 	ldhu	r2,-28(fp)
 20028e4:	1885883a 	add	r2,r3,r2
 20028e8:	e0bff90d 	sth	r2,-28(fp)
 20028ec:	00006706 	br	2002a8c <GetStrParamValueItem+0x334>
 20028f0:	e0bffa17 	ldw	r2,-24(fp)
 20028f4:	10000226 	beq	r2,zero,2002900 <GetStrParamValueItem+0x1a8>
 20028f8:	e0bffa17 	ldw	r2,-24(fp)
 20028fc:	00000206 	br	2002908 <GetStrParamValueItem+0x1b0>
 2002900:	00808174 	movhi	r2,517
 2002904:	10a1ad04 	addi	r2,r2,-31052
 2002908:	e0fffb17 	ldw	r3,-20(fp)
 200290c:	18c00017 	ldw	r3,0(r3)
 2002910:	e13fff17 	ldw	r4,-4(fp)
 2002914:	100b883a 	mov	r5,r2
 2002918:	180d883a 	mov	r6,r3
 200291c:	20347b80 	call	20347b8 <sprintf>
 2002920:	1007883a 	mov	r3,r2
 2002924:	e0bff90b 	ldhu	r2,-28(fp)
 2002928:	1885883a 	add	r2,r3,r2
 200292c:	e0bff90d 	sth	r2,-28(fp)
 2002930:	00005606 	br	2002a8c <GetStrParamValueItem+0x334>
 2002934:	e0bffe17 	ldw	r2,-8(fp)
 2002938:	1080040b 	ldhu	r2,16(r2)
 200293c:	e0bffc0d 	sth	r2,-16(fp)
 2002940:	e0bffc0b 	ldhu	r2,-16(fp)
 2002944:	e13fff17 	ldw	r4,-4(fp)
 2002948:	e17ffb17 	ldw	r5,-20(fp)
 200294c:	100d883a 	mov	r6,r2
 2002950:	2034b700 	call	2034b70 <strncpy>
 2002954:	e0bffc0b 	ldhu	r2,-16(fp)
 2002958:	10bfffc4 	addi	r2,r2,-1
 200295c:	e0ffff17 	ldw	r3,-4(fp)
 2002960:	1885883a 	add	r2,r3,r2
 2002964:	10000005 	stb	zero,0(r2)
 2002968:	e13fff17 	ldw	r4,-4(fp)
 200296c:	2034a180 	call	2034a18 <strlen>
 2002970:	1007883a 	mov	r3,r2
 2002974:	e0bff90b 	ldhu	r2,-28(fp)
 2002978:	1885883a 	add	r2,r3,r2
 200297c:	e0bff90d 	sth	r2,-28(fp)
 2002980:	00004206 	br	2002a8c <GetStrParamValueItem+0x334>
 2002984:	e0bffa17 	ldw	r2,-24(fp)
 2002988:	10001026 	beq	r2,zero,20029cc <GetStrParamValueItem+0x274>
 200298c:	e0bffb17 	ldw	r2,-20(fp)
 2002990:	10c00017 	ldw	r3,0(r2)
 2002994:	1809883a 	mov	r4,r3
 2002998:	20335f80 	call	20335f8 <__extendsfdf2>
 200299c:	100f883a 	mov	r7,r2
 20029a0:	1811883a 	mov	r8,r3
 20029a4:	e13fff17 	ldw	r4,-4(fp)
 20029a8:	e17ffa17 	ldw	r5,-24(fp)
 20029ac:	380d883a 	mov	r6,r7
 20029b0:	400f883a 	mov	r7,r8
 20029b4:	20347b80 	call	20347b8 <sprintf>
 20029b8:	1007883a 	mov	r3,r2
 20029bc:	e0bff90b 	ldhu	r2,-28(fp)
 20029c0:	1885883a 	add	r2,r3,r2
 20029c4:	e0bff90d 	sth	r2,-28(fp)
 20029c8:	00003006 	br	2002a8c <GetStrParamValueItem+0x334>
 20029cc:	e0bffb17 	ldw	r2,-20(fp)
 20029d0:	10c00017 	ldw	r3,0(r2)
 20029d4:	1809883a 	mov	r4,r3
 20029d8:	20335f80 	call	20335f8 <__extendsfdf2>
 20029dc:	100f883a 	mov	r7,r2
 20029e0:	1811883a 	mov	r8,r3
 20029e4:	e13fff17 	ldw	r4,-4(fp)
 20029e8:	01408174 	movhi	r5,517
 20029ec:	2961af04 	addi	r5,r5,-31044
 20029f0:	380d883a 	mov	r6,r7
 20029f4:	400f883a 	mov	r7,r8
 20029f8:	20347b80 	call	20347b8 <sprintf>
 20029fc:	1007883a 	mov	r3,r2
 2002a00:	e0bff90b 	ldhu	r2,-28(fp)
 2002a04:	1885883a 	add	r2,r3,r2
 2002a08:	e0bff90d 	sth	r2,-28(fp)
 2002a0c:	00001f06 	br	2002a8c <GetStrParamValueItem+0x334>
 2002a10:	e0bffa17 	ldw	r2,-24(fp)
 2002a14:	10000226 	beq	r2,zero,2002a20 <GetStrParamValueItem+0x2c8>
 2002a18:	e0bffa17 	ldw	r2,-24(fp)
 2002a1c:	00000206 	br	2002a28 <GetStrParamValueItem+0x2d0>
 2002a20:	00808174 	movhi	r2,517
 2002a24:	10a1b004 	addi	r2,r2,-31040
 2002a28:	e0fffb17 	ldw	r3,-20(fp)
 2002a2c:	18c000c4 	addi	r3,r3,3
 2002a30:	18c00003 	ldbu	r3,0(r3)
 2002a34:	19803fcc 	andi	r6,r3,255
 2002a38:	e0fffb17 	ldw	r3,-20(fp)
 2002a3c:	18c00084 	addi	r3,r3,2
 2002a40:	18c00003 	ldbu	r3,0(r3)
 2002a44:	19c03fcc 	andi	r7,r3,255
 2002a48:	e0fffb17 	ldw	r3,-20(fp)
 2002a4c:	18c00044 	addi	r3,r3,1
 2002a50:	18c00003 	ldbu	r3,0(r3)
 2002a54:	19003fcc 	andi	r4,r3,255
 2002a58:	e0fffb17 	ldw	r3,-20(fp)
 2002a5c:	18c00003 	ldbu	r3,0(r3)
 2002a60:	18c03fcc 	andi	r3,r3,255
 2002a64:	d9000015 	stw	r4,0(sp)
 2002a68:	d8c00115 	stw	r3,4(sp)
 2002a6c:	e13fff17 	ldw	r4,-4(fp)
 2002a70:	100b883a 	mov	r5,r2
 2002a74:	20347b80 	call	20347b8 <sprintf>
 2002a78:	1007883a 	mov	r3,r2
 2002a7c:	e0bff90b 	ldhu	r2,-28(fp)
 2002a80:	1885883a 	add	r2,r3,r2
 2002a84:	e0bff90d 	sth	r2,-28(fp)
 2002a88:	0001883a 	nop
 2002a8c:	e0bff90b 	ldhu	r2,-28(fp)
 2002a90:	e037883a 	mov	sp,fp
 2002a94:	dfc00117 	ldw	ra,4(sp)
 2002a98:	df000017 	ldw	fp,0(sp)
 2002a9c:	dec00204 	addi	sp,sp,8
 2002aa0:	f800283a 	ret

02002aa4 <TestProg>:
 2002aa4:	defff504 	addi	sp,sp,-44
 2002aa8:	dfc00a15 	stw	ra,40(sp)
 2002aac:	df000915 	stw	fp,36(sp)
 2002ab0:	df000904 	addi	fp,sp,36
 2002ab4:	e13fff15 	stw	r4,-4(fp)
 2002ab8:	e0bfff17 	ldw	r2,-4(fp)
 2002abc:	e0bff915 	stw	r2,-28(fp)
 2002ac0:	008000c4 	movi	r2,3
 2002ac4:	e0bff805 	stb	r2,-32(fp)
 2002ac8:	e0bff917 	ldw	r2,-28(fp)
 2002acc:	1000021e 	bne	r2,zero,2002ad8 <TestProg+0x34>
 2002ad0:	0005883a 	mov	r2,zero
 2002ad4:	00011f06 	br	2002f54 <TestProg+0x4b0>
 2002ad8:	e0bff917 	ldw	r2,-28(fp)
 2002adc:	10800717 	ldw	r2,28(r2)
 2002ae0:	e0bffa15 	stw	r2,-24(fp)
 2002ae4:	e03ff715 	stw	zero,-36(fp)
 2002ae8:	e0bffa17 	ldw	r2,-24(fp)
 2002aec:	10800917 	ldw	r2,36(r2)
 2002af0:	10800017 	ldw	r2,0(r2)
 2002af4:	1000061e 	bne	r2,zero,2002b10 <TestProg+0x6c>
 2002af8:	e0bffa17 	ldw	r2,-24(fp)
 2002afc:	00c00044 	movi	r3,1
 2002b00:	10c0000d 	sth	r3,0(r2)
 2002b04:	e0bffa17 	ldw	r2,-24(fp)
 2002b08:	1080000b 	ldhu	r2,0(r2)
 2002b0c:	00011106 	br	2002f54 <TestProg+0x4b0>
 2002b10:	e0bffa17 	ldw	r2,-24(fp)
 2002b14:	10800183 	ldbu	r2,6(r2)
 2002b18:	10803fcc 	andi	r2,r2,255
 2002b1c:	1080201c 	xori	r2,r2,128
 2002b20:	10bfe004 	addi	r2,r2,-128
 2002b24:	10800258 	cmpnei	r2,r2,9
 2002b28:	1000061e 	bne	r2,zero,2002b44 <TestProg+0xa0>
 2002b2c:	e13ff917 	ldw	r4,-28(fp)
 2002b30:	e17ffa17 	ldw	r5,-24(fp)
 2002b34:	20038e40 	call	20038e4 <user_get_color>
 2002b38:	e0bffa17 	ldw	r2,-24(fp)
 2002b3c:	1080000b 	ldhu	r2,0(r2)
 2002b40:	00010406 	br	2002f54 <TestProg+0x4b0>
 2002b44:	e0bff917 	ldw	r2,-28(fp)
 2002b48:	1080018b 	ldhu	r2,6(r2)
 2002b4c:	10bfffcc 	andi	r2,r2,65535
 2002b50:	10c00220 	cmpeqi	r3,r2,8
 2002b54:	1800921e 	bne	r3,zero,2002da0 <TestProg+0x2fc>
 2002b58:	10c00248 	cmpgei	r3,r2,9
 2002b5c:	1800071e 	bne	r3,zero,2002b7c <TestProg+0xd8>
 2002b60:	10c000a0 	cmpeqi	r3,r2,2
 2002b64:	18005b1e 	bne	r3,zero,2002cd4 <TestProg+0x230>
 2002b68:	10c00120 	cmpeqi	r3,r2,4
 2002b6c:	1800261e 	bne	r3,zero,2002c08 <TestProg+0x164>
 2002b70:	10800060 	cmpeqi	r2,r2,1
 2002b74:	10000b1e 	bne	r2,zero,2002ba4 <TestProg+0x100>
 2002b78:	0000cd06 	br	2002eb0 <TestProg+0x40c>
 2002b7c:	10c01020 	cmpeqi	r3,r2,64
 2002b80:	1800ca1e 	bne	r3,zero,2002eac <TestProg+0x408>
 2002b84:	10c01048 	cmpgei	r3,r2,65
 2002b88:	1800031e 	bne	r3,zero,2002b98 <TestProg+0xf4>
 2002b8c:	10800420 	cmpeqi	r2,r2,16
 2002b90:	10001d1e 	bne	r2,zero,2002c08 <TestProg+0x164>
 2002b94:	0000c606 	br	2002eb0 <TestProg+0x40c>
 2002b98:	10808020 	cmpeqi	r2,r2,512
 2002b9c:	10001a1e 	bne	r2,zero,2002c08 <TestProg+0x164>
 2002ba0:	0000c206 	br	2002eac <TestProg+0x408>
 2002ba4:	e0bff917 	ldw	r2,-28(fp)
 2002ba8:	10800317 	ldw	r2,12(r2)
 2002bac:	10800017 	ldw	r2,0(r2)
 2002bb0:	e0bffb15 	stw	r2,-20(fp)
 2002bb4:	e0bffb17 	ldw	r2,-20(fp)
 2002bb8:	1000021e 	bne	r2,zero,2002bc4 <TestProg+0x120>
 2002bbc:	e03ff715 	stw	zero,-36(fp)
 2002bc0:	00001006 	br	2002c04 <TestProg+0x160>
 2002bc4:	e0bffa17 	ldw	r2,-24(fp)
 2002bc8:	1080008b 	ldhu	r2,2(r2)
 2002bcc:	10bfffcc 	andi	r2,r2,65535
 2002bd0:	10000326 	beq	r2,zero,2002be0 <TestProg+0x13c>
 2002bd4:	00800044 	movi	r2,1
 2002bd8:	e0bff715 	stw	r2,-36(fp)
 2002bdc:	00000906 	br	2002c04 <TestProg+0x160>
 2002be0:	e0bffa17 	ldw	r2,-24(fp)
 2002be4:	1080010b 	ldhu	r2,4(r2)
 2002be8:	10bfffcc 	andi	r2,r2,65535
 2002bec:	10000326 	beq	r2,zero,2002bfc <TestProg+0x158>
 2002bf0:	00800084 	movi	r2,2
 2002bf4:	e0bff715 	stw	r2,-36(fp)
 2002bf8:	00000206 	br	2002c04 <TestProg+0x160>
 2002bfc:	e03ff715 	stw	zero,-36(fp)
 2002c00:	0000ab06 	br	2002eb0 <TestProg+0x40c>
 2002c04:	0000aa06 	br	2002eb0 <TestProg+0x40c>
 2002c08:	e0bff917 	ldw	r2,-28(fp)
 2002c0c:	10800317 	ldw	r2,12(r2)
 2002c10:	10800017 	ldw	r2,0(r2)
 2002c14:	e0bffc15 	stw	r2,-16(fp)
 2002c18:	e0bffa17 	ldw	r2,-24(fp)
 2002c1c:	10800317 	ldw	r2,12(r2)
 2002c20:	10000826 	beq	r2,zero,2002c44 <TestProg+0x1a0>
 2002c24:	e0bffa17 	ldw	r2,-24(fp)
 2002c28:	10800317 	ldw	r2,12(r2)
 2002c2c:	10800017 	ldw	r2,0(r2)
 2002c30:	e0fffc17 	ldw	r3,-16(fp)
 2002c34:	18800336 	bltu	r3,r2,2002c44 <TestProg+0x1a0>
 2002c38:	00800084 	movi	r2,2
 2002c3c:	e0bff715 	stw	r2,-36(fp)
 2002c40:	00002306 	br	2002cd0 <TestProg+0x22c>
 2002c44:	e0bffa17 	ldw	r2,-24(fp)
 2002c48:	10800617 	ldw	r2,24(r2)
 2002c4c:	10000826 	beq	r2,zero,2002c70 <TestProg+0x1cc>
 2002c50:	e0bffa17 	ldw	r2,-24(fp)
 2002c54:	10800617 	ldw	r2,24(r2)
 2002c58:	10c00017 	ldw	r3,0(r2)
 2002c5c:	e0bffc17 	ldw	r2,-16(fp)
 2002c60:	18800336 	bltu	r3,r2,2002c70 <TestProg+0x1cc>
 2002c64:	00bfff84 	movi	r2,-2
 2002c68:	e0bff715 	stw	r2,-36(fp)
 2002c6c:	00001806 	br	2002cd0 <TestProg+0x22c>
 2002c70:	e0bffa17 	ldw	r2,-24(fp)
 2002c74:	10800417 	ldw	r2,16(r2)
 2002c78:	10000826 	beq	r2,zero,2002c9c <TestProg+0x1f8>
 2002c7c:	e0bffa17 	ldw	r2,-24(fp)
 2002c80:	10800417 	ldw	r2,16(r2)
 2002c84:	10800017 	ldw	r2,0(r2)
 2002c88:	e0fffc17 	ldw	r3,-16(fp)
 2002c8c:	18800336 	bltu	r3,r2,2002c9c <TestProg+0x1f8>
 2002c90:	00800044 	movi	r2,1
 2002c94:	e0bff715 	stw	r2,-36(fp)
 2002c98:	00000d06 	br	2002cd0 <TestProg+0x22c>
 2002c9c:	e0bffa17 	ldw	r2,-24(fp)
 2002ca0:	10800517 	ldw	r2,20(r2)
 2002ca4:	10000826 	beq	r2,zero,2002cc8 <TestProg+0x224>
 2002ca8:	e0bffa17 	ldw	r2,-24(fp)
 2002cac:	10800517 	ldw	r2,20(r2)
 2002cb0:	10c00017 	ldw	r3,0(r2)
 2002cb4:	e0bffc17 	ldw	r2,-16(fp)
 2002cb8:	18800336 	bltu	r3,r2,2002cc8 <TestProg+0x224>
 2002cbc:	00bffd44 	movi	r2,-11
 2002cc0:	e0bff715 	stw	r2,-36(fp)
 2002cc4:	00000206 	br	2002cd0 <TestProg+0x22c>
 2002cc8:	e03ff715 	stw	zero,-36(fp)
 2002ccc:	00007806 	br	2002eb0 <TestProg+0x40c>
 2002cd0:	00007706 	br	2002eb0 <TestProg+0x40c>
 2002cd4:	e0bff917 	ldw	r2,-28(fp)
 2002cd8:	10800317 	ldw	r2,12(r2)
 2002cdc:	10800017 	ldw	r2,0(r2)
 2002ce0:	e0bffd15 	stw	r2,-12(fp)
 2002ce4:	e0bffa17 	ldw	r2,-24(fp)
 2002ce8:	10800317 	ldw	r2,12(r2)
 2002cec:	10000826 	beq	r2,zero,2002d10 <TestProg+0x26c>
 2002cf0:	e0bffa17 	ldw	r2,-24(fp)
 2002cf4:	10800317 	ldw	r2,12(r2)
 2002cf8:	10800017 	ldw	r2,0(r2)
 2002cfc:	e0fffd17 	ldw	r3,-12(fp)
 2002d00:	18800316 	blt	r3,r2,2002d10 <TestProg+0x26c>
 2002d04:	00800084 	movi	r2,2
 2002d08:	e0bff715 	stw	r2,-36(fp)
 2002d0c:	00002306 	br	2002d9c <TestProg+0x2f8>
 2002d10:	e0bffa17 	ldw	r2,-24(fp)
 2002d14:	10800617 	ldw	r2,24(r2)
 2002d18:	10000826 	beq	r2,zero,2002d3c <TestProg+0x298>
 2002d1c:	e0bffa17 	ldw	r2,-24(fp)
 2002d20:	10800617 	ldw	r2,24(r2)
 2002d24:	10c00017 	ldw	r3,0(r2)
 2002d28:	e0bffd17 	ldw	r2,-12(fp)
 2002d2c:	18800316 	blt	r3,r2,2002d3c <TestProg+0x298>
 2002d30:	00bfff84 	movi	r2,-2
 2002d34:	e0bff715 	stw	r2,-36(fp)
 2002d38:	00001806 	br	2002d9c <TestProg+0x2f8>
 2002d3c:	e0bffa17 	ldw	r2,-24(fp)
 2002d40:	10800417 	ldw	r2,16(r2)
 2002d44:	10000826 	beq	r2,zero,2002d68 <TestProg+0x2c4>
 2002d48:	e0bffa17 	ldw	r2,-24(fp)
 2002d4c:	10800417 	ldw	r2,16(r2)
 2002d50:	10800017 	ldw	r2,0(r2)
 2002d54:	e0fffd17 	ldw	r3,-12(fp)
 2002d58:	18800316 	blt	r3,r2,2002d68 <TestProg+0x2c4>
 2002d5c:	00800044 	movi	r2,1
 2002d60:	e0bff715 	stw	r2,-36(fp)
 2002d64:	00000d06 	br	2002d9c <TestProg+0x2f8>
 2002d68:	e0bffa17 	ldw	r2,-24(fp)
 2002d6c:	10800517 	ldw	r2,20(r2)
 2002d70:	10000826 	beq	r2,zero,2002d94 <TestProg+0x2f0>
 2002d74:	e0bffa17 	ldw	r2,-24(fp)
 2002d78:	10800517 	ldw	r2,20(r2)
 2002d7c:	10c00017 	ldw	r3,0(r2)
 2002d80:	e0bffd17 	ldw	r2,-12(fp)
 2002d84:	18800316 	blt	r3,r2,2002d94 <TestProg+0x2f0>
 2002d88:	00bffd44 	movi	r2,-11
 2002d8c:	e0bff715 	stw	r2,-36(fp)
 2002d90:	00000206 	br	2002d9c <TestProg+0x2f8>
 2002d94:	e03ff715 	stw	zero,-36(fp)
 2002d98:	00004506 	br	2002eb0 <TestProg+0x40c>
 2002d9c:	00004406 	br	2002eb0 <TestProg+0x40c>
 2002da0:	e0bff917 	ldw	r2,-28(fp)
 2002da4:	10800317 	ldw	r2,12(r2)
 2002da8:	10800017 	ldw	r2,0(r2)
 2002dac:	e0bffe15 	stw	r2,-8(fp)
 2002db0:	e0bffa17 	ldw	r2,-24(fp)
 2002db4:	10800317 	ldw	r2,12(r2)
 2002db8:	10000c26 	beq	r2,zero,2002dec <TestProg+0x348>
 2002dbc:	e0bffa17 	ldw	r2,-24(fp)
 2002dc0:	10800317 	ldw	r2,12(r2)
 2002dc4:	10c00017 	ldw	r3,0(r2)
 2002dc8:	e13ffe17 	ldw	r4,-8(fp)
 2002dcc:	180b883a 	mov	r5,r3
 2002dd0:	018dca34 	movhi	r6,14120
 2002dd4:	31b16b04 	addi	r6,r6,-14932
 2002dd8:	20003a40 	call	20003a4 <float_compare_gt>
 2002ddc:	10000326 	beq	r2,zero,2002dec <TestProg+0x348>
 2002de0:	00800084 	movi	r2,2
 2002de4:	e0bff715 	stw	r2,-36(fp)
 2002de8:	00002f06 	br	2002ea8 <TestProg+0x404>
 2002dec:	e0bffa17 	ldw	r2,-24(fp)
 2002df0:	10800617 	ldw	r2,24(r2)
 2002df4:	10000c26 	beq	r2,zero,2002e28 <TestProg+0x384>
 2002df8:	e0bffa17 	ldw	r2,-24(fp)
 2002dfc:	10800617 	ldw	r2,24(r2)
 2002e00:	10c00017 	ldw	r3,0(r2)
 2002e04:	e13ffe17 	ldw	r4,-8(fp)
 2002e08:	180b883a 	mov	r5,r3
 2002e0c:	018dca34 	movhi	r6,14120
 2002e10:	31b16b04 	addi	r6,r6,-14932
 2002e14:	20003440 	call	2000344 <float_compare_lt>
 2002e18:	10000326 	beq	r2,zero,2002e28 <TestProg+0x384>
 2002e1c:	00bfff84 	movi	r2,-2
 2002e20:	e0bff715 	stw	r2,-36(fp)
 2002e24:	00002006 	br	2002ea8 <TestProg+0x404>
 2002e28:	e0bffa17 	ldw	r2,-24(fp)
 2002e2c:	10800417 	ldw	r2,16(r2)
 2002e30:	10000c26 	beq	r2,zero,2002e64 <TestProg+0x3c0>
 2002e34:	e0bffa17 	ldw	r2,-24(fp)
 2002e38:	10800417 	ldw	r2,16(r2)
 2002e3c:	10c00017 	ldw	r3,0(r2)
 2002e40:	e13ffe17 	ldw	r4,-8(fp)
 2002e44:	180b883a 	mov	r5,r3
 2002e48:	018dca34 	movhi	r6,14120
 2002e4c:	31b16b04 	addi	r6,r6,-14932
 2002e50:	20003a40 	call	20003a4 <float_compare_gt>
 2002e54:	10000326 	beq	r2,zero,2002e64 <TestProg+0x3c0>
 2002e58:	00800044 	movi	r2,1
 2002e5c:	e0bff715 	stw	r2,-36(fp)
 2002e60:	00001106 	br	2002ea8 <TestProg+0x404>
 2002e64:	e0bffa17 	ldw	r2,-24(fp)
 2002e68:	10800517 	ldw	r2,20(r2)
 2002e6c:	10000c26 	beq	r2,zero,2002ea0 <TestProg+0x3fc>
 2002e70:	e0bffa17 	ldw	r2,-24(fp)
 2002e74:	10800517 	ldw	r2,20(r2)
 2002e78:	10c00017 	ldw	r3,0(r2)
 2002e7c:	e13ffe17 	ldw	r4,-8(fp)
 2002e80:	180b883a 	mov	r5,r3
 2002e84:	018dca34 	movhi	r6,14120
 2002e88:	31b16b04 	addi	r6,r6,-14932
 2002e8c:	20003440 	call	2000344 <float_compare_lt>
 2002e90:	10000326 	beq	r2,zero,2002ea0 <TestProg+0x3fc>
 2002e94:	00bffd44 	movi	r2,-11
 2002e98:	e0bff715 	stw	r2,-36(fp)
 2002e9c:	00000206 	br	2002ea8 <TestProg+0x404>
 2002ea0:	e03ff715 	stw	zero,-36(fp)
 2002ea4:	00000206 	br	2002eb0 <TestProg+0x40c>
 2002ea8:	00000106 	br	2002eb0 <TestProg+0x40c>
 2002eac:	0001883a 	nop
 2002eb0:	e0bffa17 	ldw	r2,-24(fp)
 2002eb4:	1080000b 	ldhu	r2,0(r2)
 2002eb8:	10bfffcc 	andi	r2,r2,65535
 2002ebc:	1000021e 	bne	r2,zero,2002ec8 <TestProg+0x424>
 2002ec0:	0005883a 	mov	r2,zero
 2002ec4:	00002306 	br	2002f54 <TestProg+0x4b0>
 2002ec8:	e0bff717 	ldw	r2,-36(fp)
 2002ecc:	10ffffa0 	cmpeqi	r3,r2,-2
 2002ed0:	1800091e 	bne	r3,zero,2002ef8 <TestProg+0x454>
 2002ed4:	10ffffc8 	cmpgei	r3,r2,-1
 2002ed8:	1800031e 	bne	r3,zero,2002ee8 <TestProg+0x444>
 2002edc:	10bffd60 	cmpeqi	r2,r2,-11
 2002ee0:	1000091e 	bne	r2,zero,2002f08 <TestProg+0x464>
 2002ee4:	00000c06 	br	2002f18 <TestProg+0x474>
 2002ee8:	10c00060 	cmpeqi	r3,r2,1
 2002eec:	1800061e 	bne	r3,zero,2002f08 <TestProg+0x464>
 2002ef0:	108000a0 	cmpeqi	r2,r2,2
 2002ef4:	10000826 	beq	r2,zero,2002f18 <TestProg+0x474>
 2002ef8:	e0bffa17 	ldw	r2,-24(fp)
 2002efc:	1080010b 	ldhu	r2,4(r2)
 2002f00:	e0bff805 	stb	r2,-32(fp)
 2002f04:	00000406 	br	2002f18 <TestProg+0x474>
 2002f08:	e0bffa17 	ldw	r2,-24(fp)
 2002f0c:	1080008b 	ldhu	r2,2(r2)
 2002f10:	e0bff805 	stb	r2,-32(fp)
 2002f14:	0001883a 	nop
 2002f18:	e0fff807 	ldb	r3,-32(fp)
 2002f1c:	e0bffa17 	ldw	r2,-24(fp)
 2002f20:	10c0000d 	sth	r3,0(r2)
 2002f24:	e0bffa17 	ldw	r2,-24(fp)
 2002f28:	10800803 	ldbu	r2,32(r2)
 2002f2c:	10c03fcc 	andi	r3,r2,255
 2002f30:	18c0201c 	xori	r3,r3,128
 2002f34:	18ffe004 	addi	r3,r3,-128
 2002f38:	e0bff717 	ldw	r2,-36(fp)
 2002f3c:	18800426 	beq	r3,r2,2002f50 <TestProg+0x4ac>
 2002f40:	e0bff717 	ldw	r2,-36(fp)
 2002f44:	1007883a 	mov	r3,r2
 2002f48:	e0bffa17 	ldw	r2,-24(fp)
 2002f4c:	10c00805 	stb	r3,32(r2)
 2002f50:	e0bff803 	ldbu	r2,-32(fp)
 2002f54:	e037883a 	mov	sp,fp
 2002f58:	dfc00117 	ldw	ra,4(sp)
 2002f5c:	df000017 	ldw	fp,0(sp)
 2002f60:	dec00204 	addi	sp,sp,8
 2002f64:	f800283a 	ret

02002f68 <SetStrValueItem>:
 2002f68:	defff104 	addi	sp,sp,-60
 2002f6c:	dfc00e15 	stw	ra,56(sp)
 2002f70:	df000d15 	stw	fp,52(sp)
 2002f74:	df000d04 	addi	fp,sp,52
 2002f78:	e13ffc15 	stw	r4,-16(fp)
 2002f7c:	e17ffd15 	stw	r5,-12(fp)
 2002f80:	e1bffe15 	stw	r6,-8(fp)
 2002f84:	3805883a 	mov	r2,r7
 2002f88:	e0bfff0d 	sth	r2,-4(fp)
 2002f8c:	e0bffe17 	ldw	r2,-8(fp)
 2002f90:	10000226 	beq	r2,zero,2002f9c <SetStrValueItem+0x34>
 2002f94:	e0bffd17 	ldw	r2,-12(fp)
 2002f98:	1000021e 	bne	r2,zero,2002fa4 <SetStrValueItem+0x3c>
 2002f9c:	0005883a 	mov	r2,zero
 2002fa0:	00016e06 	br	200355c <SetStrValueItem+0x5f4>
 2002fa4:	e0bffd17 	ldw	r2,-12(fp)
 2002fa8:	1080018b 	ldhu	r2,6(r2)
 2002fac:	10bfffcc 	andi	r2,r2,65535
 2002fb0:	10c00420 	cmpeqi	r3,r2,16
 2002fb4:	1800a11e 	bne	r3,zero,200323c <SetStrValueItem+0x2d4>
 2002fb8:	10c00448 	cmpgei	r3,r2,17
 2002fbc:	18000c1e 	bne	r3,zero,2002ff0 <SetStrValueItem+0x88>
 2002fc0:	10c000a0 	cmpeqi	r3,r2,2
 2002fc4:	1800741e 	bne	r3,zero,2003198 <SetStrValueItem+0x230>
 2002fc8:	10c000c8 	cmpgei	r3,r2,3
 2002fcc:	1800031e 	bne	r3,zero,2002fdc <SetStrValueItem+0x74>
 2002fd0:	10800060 	cmpeqi	r2,r2,1
 2002fd4:	1000401e 	bne	r2,zero,20030d8 <SetStrValueItem+0x170>
 2002fd8:	00015f06 	br	2003558 <SetStrValueItem+0x5f0>
 2002fdc:	10c00120 	cmpeqi	r3,r2,4
 2002fe0:	18000f1e 	bne	r3,zero,2003020 <SetStrValueItem+0xb8>
 2002fe4:	10800220 	cmpeqi	r2,r2,8
 2002fe8:	1000fd1e 	bne	r2,zero,20033e0 <SetStrValueItem+0x478>
 2002fec:	00015a06 	br	2003558 <SetStrValueItem+0x5f0>
 2002ff0:	10c02020 	cmpeqi	r3,r2,128
 2002ff4:	1800c11e 	bne	r3,zero,20032fc <SetStrValueItem+0x394>
 2002ff8:	10c02048 	cmpgei	r3,r2,129
 2002ffc:	1800051e 	bne	r3,zero,2003014 <SetStrValueItem+0xac>
 2003000:	10c00820 	cmpeqi	r3,r2,32
 2003004:	1800bd1e 	bne	r3,zero,20032fc <SetStrValueItem+0x394>
 2003008:	10801020 	cmpeqi	r2,r2,64
 200300c:	1000321e 	bne	r2,zero,20030d8 <SetStrValueItem+0x170>
 2003010:	00015106 	br	2003558 <SetStrValueItem+0x5f0>
 2003014:	10804020 	cmpeqi	r2,r2,256
 2003018:	10012b1e 	bne	r2,zero,20034c8 <SetStrValueItem+0x560>
 200301c:	00014e06 	br	2003558 <SetStrValueItem+0x5f0>
 2003020:	e13ffe17 	ldw	r4,-8(fp)
 2003024:	e17ff304 	addi	r5,fp,-52
 2003028:	200579c0 	call	200579c <StrToU32>
 200302c:	10803fcc 	andi	r2,r2,255
 2003030:	1080201c 	xori	r2,r2,128
 2003034:	10bfe004 	addi	r2,r2,-128
 2003038:	1000021e 	bne	r2,zero,2003044 <SetStrValueItem+0xdc>
 200303c:	0005883a 	mov	r2,zero
 2003040:	00014606 	br	200355c <SetStrValueItem+0x5f4>
 2003044:	e0bffd17 	ldw	r2,-12(fp)
 2003048:	10800517 	ldw	r2,20(r2)
 200304c:	10000526 	beq	r2,zero,2003064 <SetStrValueItem+0xfc>
 2003050:	e0bffd17 	ldw	r2,-12(fp)
 2003054:	10800517 	ldw	r2,20(r2)
 2003058:	10800017 	ldw	r2,0(r2)
 200305c:	e0fff317 	ldw	r3,-52(fp)
 2003060:	18801636 	bltu	r3,r2,20030bc <SetStrValueItem+0x154>
 2003064:	e0bffd17 	ldw	r2,-12(fp)
 2003068:	10800617 	ldw	r2,24(r2)
 200306c:	10000526 	beq	r2,zero,2003084 <SetStrValueItem+0x11c>
 2003070:	e0bffd17 	ldw	r2,-12(fp)
 2003074:	10800617 	ldw	r2,24(r2)
 2003078:	10c00017 	ldw	r3,0(r2)
 200307c:	e0bff317 	ldw	r2,-52(fp)
 2003080:	18800e36 	bltu	r3,r2,20030bc <SetStrValueItem+0x154>
 2003084:	e0bffd17 	ldw	r2,-12(fp)
 2003088:	10800143 	ldbu	r2,5(r2)
 200308c:	10803fcc 	andi	r2,r2,255
 2003090:	1080201c 	xori	r2,r2,128
 2003094:	10bfe004 	addi	r2,r2,-128
 2003098:	10000a26 	beq	r2,zero,20030c4 <SetStrValueItem+0x15c>
 200309c:	e13ffc17 	ldw	r4,-16(fp)
 20030a0:	e17ffd17 	ldw	r5,-12(fp)
 20030a4:	e1bff304 	addi	r6,fp,-52
 20030a8:	200384c0 	call	200384c <profile_userset_value>
 20030ac:	10803fcc 	andi	r2,r2,255
 20030b0:	1080201c 	xori	r2,r2,128
 20030b4:	10bfe004 	addi	r2,r2,-128
 20030b8:	1000021e 	bne	r2,zero,20030c4 <SetStrValueItem+0x15c>
 20030bc:	0005883a 	mov	r2,zero
 20030c0:	00012606 	br	200355c <SetStrValueItem+0x5f4>
 20030c4:	e0bffd17 	ldw	r2,-12(fp)
 20030c8:	10800317 	ldw	r2,12(r2)
 20030cc:	e0fff317 	ldw	r3,-52(fp)
 20030d0:	10c00015 	stw	r3,0(r2)
 20030d4:	00012006 	br	2003558 <SetStrValueItem+0x5f0>
 20030d8:	e0bff404 	addi	r2,fp,-48
 20030dc:	e13ffe17 	ldw	r4,-8(fp)
 20030e0:	100b883a 	mov	r5,r2
 20030e4:	200579c0 	call	200579c <StrToU32>
 20030e8:	10803fcc 	andi	r2,r2,255
 20030ec:	1080201c 	xori	r2,r2,128
 20030f0:	10bfe004 	addi	r2,r2,-128
 20030f4:	1000021e 	bne	r2,zero,2003100 <SetStrValueItem+0x198>
 20030f8:	0005883a 	mov	r2,zero
 20030fc:	00011706 	br	200355c <SetStrValueItem+0x5f4>
 2003100:	e0bffd17 	ldw	r2,-12(fp)
 2003104:	10800517 	ldw	r2,20(r2)
 2003108:	10000526 	beq	r2,zero,2003120 <SetStrValueItem+0x1b8>
 200310c:	e0bffd17 	ldw	r2,-12(fp)
 2003110:	10800517 	ldw	r2,20(r2)
 2003114:	10800017 	ldw	r2,0(r2)
 2003118:	e0fff417 	ldw	r3,-48(fp)
 200311c:	18801736 	bltu	r3,r2,200317c <SetStrValueItem+0x214>
 2003120:	e0bffd17 	ldw	r2,-12(fp)
 2003124:	10800617 	ldw	r2,24(r2)
 2003128:	10000526 	beq	r2,zero,2003140 <SetStrValueItem+0x1d8>
 200312c:	e0bffd17 	ldw	r2,-12(fp)
 2003130:	10800617 	ldw	r2,24(r2)
 2003134:	10c00017 	ldw	r3,0(r2)
 2003138:	e0bff417 	ldw	r2,-48(fp)
 200313c:	18800f36 	bltu	r3,r2,200317c <SetStrValueItem+0x214>
 2003140:	e0bffd17 	ldw	r2,-12(fp)
 2003144:	10800143 	ldbu	r2,5(r2)
 2003148:	10803fcc 	andi	r2,r2,255
 200314c:	1080201c 	xori	r2,r2,128
 2003150:	10bfe004 	addi	r2,r2,-128
 2003154:	10000b26 	beq	r2,zero,2003184 <SetStrValueItem+0x21c>
 2003158:	e0bff404 	addi	r2,fp,-48
 200315c:	e13ffc17 	ldw	r4,-16(fp)
 2003160:	e17ffd17 	ldw	r5,-12(fp)
 2003164:	100d883a 	mov	r6,r2
 2003168:	200384c0 	call	200384c <profile_userset_value>
 200316c:	10803fcc 	andi	r2,r2,255
 2003170:	1080201c 	xori	r2,r2,128
 2003174:	10bfe004 	addi	r2,r2,-128
 2003178:	1000021e 	bne	r2,zero,2003184 <SetStrValueItem+0x21c>
 200317c:	0005883a 	mov	r2,zero
 2003180:	0000f606 	br	200355c <SetStrValueItem+0x5f4>
 2003184:	e0bffd17 	ldw	r2,-12(fp)
 2003188:	10800317 	ldw	r2,12(r2)
 200318c:	e0fff417 	ldw	r3,-48(fp)
 2003190:	10c00015 	stw	r3,0(r2)
 2003194:	0000f006 	br	2003558 <SetStrValueItem+0x5f0>
 2003198:	e13ffe17 	ldw	r4,-8(fp)
 200319c:	2033a380 	call	2033a38 <atol>
 20031a0:	e0bff515 	stw	r2,-44(fp)
 20031a4:	e0bffd17 	ldw	r2,-12(fp)
 20031a8:	10800517 	ldw	r2,20(r2)
 20031ac:	10000526 	beq	r2,zero,20031c4 <SetStrValueItem+0x25c>
 20031b0:	e0bffd17 	ldw	r2,-12(fp)
 20031b4:	10800517 	ldw	r2,20(r2)
 20031b8:	10800017 	ldw	r2,0(r2)
 20031bc:	e0fff517 	ldw	r3,-44(fp)
 20031c0:	18801716 	blt	r3,r2,2003220 <SetStrValueItem+0x2b8>
 20031c4:	e0bffd17 	ldw	r2,-12(fp)
 20031c8:	10800617 	ldw	r2,24(r2)
 20031cc:	10000526 	beq	r2,zero,20031e4 <SetStrValueItem+0x27c>
 20031d0:	e0bffd17 	ldw	r2,-12(fp)
 20031d4:	10800617 	ldw	r2,24(r2)
 20031d8:	10c00017 	ldw	r3,0(r2)
 20031dc:	e0bff517 	ldw	r2,-44(fp)
 20031e0:	18800f16 	blt	r3,r2,2003220 <SetStrValueItem+0x2b8>
 20031e4:	e0bffd17 	ldw	r2,-12(fp)
 20031e8:	10800143 	ldbu	r2,5(r2)
 20031ec:	10803fcc 	andi	r2,r2,255
 20031f0:	1080201c 	xori	r2,r2,128
 20031f4:	10bfe004 	addi	r2,r2,-128
 20031f8:	10000b26 	beq	r2,zero,2003228 <SetStrValueItem+0x2c0>
 20031fc:	e0bff504 	addi	r2,fp,-44
 2003200:	e13ffc17 	ldw	r4,-16(fp)
 2003204:	e17ffd17 	ldw	r5,-12(fp)
 2003208:	100d883a 	mov	r6,r2
 200320c:	200384c0 	call	200384c <profile_userset_value>
 2003210:	10803fcc 	andi	r2,r2,255
 2003214:	1080201c 	xori	r2,r2,128
 2003218:	10bfe004 	addi	r2,r2,-128
 200321c:	1000021e 	bne	r2,zero,2003228 <SetStrValueItem+0x2c0>
 2003220:	0005883a 	mov	r2,zero
 2003224:	0000cd06 	br	200355c <SetStrValueItem+0x5f4>
 2003228:	e0bffd17 	ldw	r2,-12(fp)
 200322c:	10800317 	ldw	r2,12(r2)
 2003230:	e0fff517 	ldw	r3,-44(fp)
 2003234:	10c00015 	stw	r3,0(r2)
 2003238:	0000c706 	br	2003558 <SetStrValueItem+0x5f0>
 200323c:	e0bff604 	addi	r2,fp,-40
 2003240:	e13ffe17 	ldw	r4,-8(fp)
 2003244:	100b883a 	mov	r5,r2
 2003248:	20058d80 	call	20058d8 <StrHexToU32>
 200324c:	10803fcc 	andi	r2,r2,255
 2003250:	1080201c 	xori	r2,r2,128
 2003254:	10bfe004 	addi	r2,r2,-128
 2003258:	1000021e 	bne	r2,zero,2003264 <SetStrValueItem+0x2fc>
 200325c:	0005883a 	mov	r2,zero
 2003260:	0000be06 	br	200355c <SetStrValueItem+0x5f4>
 2003264:	e0bffd17 	ldw	r2,-12(fp)
 2003268:	10800517 	ldw	r2,20(r2)
 200326c:	10000526 	beq	r2,zero,2003284 <SetStrValueItem+0x31c>
 2003270:	e0bffd17 	ldw	r2,-12(fp)
 2003274:	10800517 	ldw	r2,20(r2)
 2003278:	10800017 	ldw	r2,0(r2)
 200327c:	e0fff617 	ldw	r3,-40(fp)
 2003280:	18801736 	bltu	r3,r2,20032e0 <SetStrValueItem+0x378>
 2003284:	e0bffd17 	ldw	r2,-12(fp)
 2003288:	10800617 	ldw	r2,24(r2)
 200328c:	10000526 	beq	r2,zero,20032a4 <SetStrValueItem+0x33c>
 2003290:	e0bffd17 	ldw	r2,-12(fp)
 2003294:	10800617 	ldw	r2,24(r2)
 2003298:	10c00017 	ldw	r3,0(r2)
 200329c:	e0bff617 	ldw	r2,-40(fp)
 20032a0:	18800f36 	bltu	r3,r2,20032e0 <SetStrValueItem+0x378>
 20032a4:	e0bffd17 	ldw	r2,-12(fp)
 20032a8:	10800143 	ldbu	r2,5(r2)
 20032ac:	10803fcc 	andi	r2,r2,255
 20032b0:	1080201c 	xori	r2,r2,128
 20032b4:	10bfe004 	addi	r2,r2,-128
 20032b8:	10000b26 	beq	r2,zero,20032e8 <SetStrValueItem+0x380>
 20032bc:	e0bff604 	addi	r2,fp,-40
 20032c0:	e13ffc17 	ldw	r4,-16(fp)
 20032c4:	e17ffd17 	ldw	r5,-12(fp)
 20032c8:	100d883a 	mov	r6,r2
 20032cc:	200384c0 	call	200384c <profile_userset_value>
 20032d0:	10803fcc 	andi	r2,r2,255
 20032d4:	1080201c 	xori	r2,r2,128
 20032d8:	10bfe004 	addi	r2,r2,-128
 20032dc:	1000021e 	bne	r2,zero,20032e8 <SetStrValueItem+0x380>
 20032e0:	0005883a 	mov	r2,zero
 20032e4:	00009d06 	br	200355c <SetStrValueItem+0x5f4>
 20032e8:	e0bffd17 	ldw	r2,-12(fp)
 20032ec:	10800317 	ldw	r2,12(r2)
 20032f0:	e0fff617 	ldw	r3,-40(fp)
 20032f4:	10c00015 	stw	r3,0(r2)
 20032f8:	00009706 	br	2003558 <SetStrValueItem+0x5f0>
 20032fc:	e0bffd17 	ldw	r2,-12(fp)
 2003300:	10c00317 	ldw	r3,12(r2)
 2003304:	e0bffd17 	ldw	r2,-12(fp)
 2003308:	1080040b 	ldhu	r2,16(r2)
 200330c:	10bfffcc 	andi	r2,r2,65535
 2003310:	1809883a 	mov	r4,r3
 2003314:	000b883a 	mov	r5,zero
 2003318:	100d883a 	mov	r6,r2
 200331c:	20344c40 	call	20344c4 <memset>
 2003320:	e0bffd17 	ldw	r2,-12(fp)
 2003324:	11000317 	ldw	r4,12(r2)
 2003328:	e17fff0b 	ldhu	r5,-4(fp)
 200332c:	e0bffd17 	ldw	r2,-12(fp)
 2003330:	1080040b 	ldhu	r2,16(r2)
 2003334:	10bfffcc 	andi	r2,r2,65535
 2003338:	10ffffc4 	addi	r3,r2,-1
 200333c:	2805883a 	mov	r2,r5
 2003340:	1880010e 	bge	r3,r2,2003348 <SetStrValueItem+0x3e0>
 2003344:	1805883a 	mov	r2,r3
 2003348:	e17ffe17 	ldw	r5,-8(fp)
 200334c:	100d883a 	mov	r6,r2
 2003350:	2034b700 	call	2034b70 <strncpy>
 2003354:	e0bffd17 	ldw	r2,-12(fp)
 2003358:	10c00317 	ldw	r3,12(r2)
 200335c:	e0bffd17 	ldw	r2,-12(fp)
 2003360:	1080040b 	ldhu	r2,16(r2)
 2003364:	10bfffcc 	andi	r2,r2,65535
 2003368:	113fffc4 	addi	r4,r2,-1
 200336c:	e0bfff0b 	ldhu	r2,-4(fp)
 2003370:	2080050e 	bge	r4,r2,2003388 <SetStrValueItem+0x420>
 2003374:	e0bffd17 	ldw	r2,-12(fp)
 2003378:	1080040b 	ldhu	r2,16(r2)
 200337c:	10bfffcc 	andi	r2,r2,65535
 2003380:	10bfffc4 	addi	r2,r2,-1
 2003384:	00000106 	br	200338c <SetStrValueItem+0x424>
 2003388:	e0bfff0b 	ldhu	r2,-4(fp)
 200338c:	1885883a 	add	r2,r3,r2
 2003390:	10000005 	stb	zero,0(r2)
 2003394:	e0bffd17 	ldw	r2,-12(fp)
 2003398:	10800143 	ldbu	r2,5(r2)
 200339c:	10803fcc 	andi	r2,r2,255
 20033a0:	1080201c 	xori	r2,r2,128
 20033a4:	10bfe004 	addi	r2,r2,-128
 20033a8:	10000c26 	beq	r2,zero,20033dc <SetStrValueItem+0x474>
 20033ac:	e0bffd17 	ldw	r2,-12(fp)
 20033b0:	10800317 	ldw	r2,12(r2)
 20033b4:	e13ffc17 	ldw	r4,-16(fp)
 20033b8:	e17ffd17 	ldw	r5,-12(fp)
 20033bc:	100d883a 	mov	r6,r2
 20033c0:	200384c0 	call	200384c <profile_userset_value>
 20033c4:	10803fcc 	andi	r2,r2,255
 20033c8:	1080201c 	xori	r2,r2,128
 20033cc:	10bfe004 	addi	r2,r2,-128
 20033d0:	1000021e 	bne	r2,zero,20033dc <SetStrValueItem+0x474>
 20033d4:	0005883a 	mov	r2,zero
 20033d8:	00006006 	br	200355c <SetStrValueItem+0x5f4>
 20033dc:	00005e06 	br	2003558 <SetStrValueItem+0x5f0>
 20033e0:	e0bff704 	addi	r2,fp,-36
 20033e4:	e13ffe17 	ldw	r4,-8(fp)
 20033e8:	100b883a 	mov	r5,r2
 20033ec:	01800ec4 	movi	r6,59
 20033f0:	200518c0 	call	200518c <StrToFloat>
 20033f4:	10803fcc 	andi	r2,r2,255
 20033f8:	1080201c 	xori	r2,r2,128
 20033fc:	10bfe004 	addi	r2,r2,-128
 2003400:	1000021e 	bne	r2,zero,200340c <SetStrValueItem+0x4a4>
 2003404:	0005883a 	mov	r2,zero
 2003408:	00005406 	br	200355c <SetStrValueItem+0x5f4>
 200340c:	e0bffd17 	ldw	r2,-12(fp)
 2003410:	10800517 	ldw	r2,20(r2)
 2003414:	10000926 	beq	r2,zero,200343c <SetStrValueItem+0x4d4>
 2003418:	e13ff717 	ldw	r4,-36(fp)
 200341c:	e0bffd17 	ldw	r2,-12(fp)
 2003420:	10800517 	ldw	r2,20(r2)
 2003424:	10c00017 	ldw	r3,0(r2)
 2003428:	180b883a 	mov	r5,r3
 200342c:	018dca34 	movhi	r6,14120
 2003430:	31b16b04 	addi	r6,r6,-14932
 2003434:	20003440 	call	2000344 <float_compare_lt>
 2003438:	10001c1e 	bne	r2,zero,20034ac <SetStrValueItem+0x544>
 200343c:	e0bffd17 	ldw	r2,-12(fp)
 2003440:	10800617 	ldw	r2,24(r2)
 2003444:	10000a26 	beq	r2,zero,2003470 <SetStrValueItem+0x508>
 2003448:	e0bffd17 	ldw	r2,-12(fp)
 200344c:	10800617 	ldw	r2,24(r2)
 2003450:	10c00017 	ldw	r3,0(r2)
 2003454:	e0bff717 	ldw	r2,-36(fp)
 2003458:	1809883a 	mov	r4,r3
 200345c:	100b883a 	mov	r5,r2
 2003460:	018dca34 	movhi	r6,14120
 2003464:	31b16b04 	addi	r6,r6,-14932
 2003468:	20003440 	call	2000344 <float_compare_lt>
 200346c:	10000f1e 	bne	r2,zero,20034ac <SetStrValueItem+0x544>
 2003470:	e0bffd17 	ldw	r2,-12(fp)
 2003474:	10800143 	ldbu	r2,5(r2)
 2003478:	10803fcc 	andi	r2,r2,255
 200347c:	1080201c 	xori	r2,r2,128
 2003480:	10bfe004 	addi	r2,r2,-128
 2003484:	10000b26 	beq	r2,zero,20034b4 <SetStrValueItem+0x54c>
 2003488:	e0bff704 	addi	r2,fp,-36
 200348c:	e13ffc17 	ldw	r4,-16(fp)
 2003490:	e17ffd17 	ldw	r5,-12(fp)
 2003494:	100d883a 	mov	r6,r2
 2003498:	200384c0 	call	200384c <profile_userset_value>
 200349c:	10803fcc 	andi	r2,r2,255
 20034a0:	1080201c 	xori	r2,r2,128
 20034a4:	10bfe004 	addi	r2,r2,-128
 20034a8:	1000021e 	bne	r2,zero,20034b4 <SetStrValueItem+0x54c>
 20034ac:	0005883a 	mov	r2,zero
 20034b0:	00002a06 	br	200355c <SetStrValueItem+0x5f4>
 20034b4:	e0bffd17 	ldw	r2,-12(fp)
 20034b8:	10800317 	ldw	r2,12(r2)
 20034bc:	e0fff717 	ldw	r3,-36(fp)
 20034c0:	10c00015 	stw	r3,0(r2)
 20034c4:	00002406 	br	2003558 <SetStrValueItem+0x5f0>
 20034c8:	e0bff817 	ldw	r2,-32(fp)
 20034cc:	1006963a 	slli	r3,r2,24
 20034d0:	e0bff917 	ldw	r2,-28(fp)
 20034d4:	10803fcc 	andi	r2,r2,255
 20034d8:	1004943a 	slli	r2,r2,16
 20034dc:	1886b03a 	or	r3,r3,r2
 20034e0:	e0bffa17 	ldw	r2,-24(fp)
 20034e4:	1004923a 	slli	r2,r2,8
 20034e8:	10bfffcc 	andi	r2,r2,65535
 20034ec:	1886b03a 	or	r3,r3,r2
 20034f0:	e0bffb17 	ldw	r2,-20(fp)
 20034f4:	10803fcc 	andi	r2,r2,255
 20034f8:	1884b03a 	or	r2,r3,r2
 20034fc:	e0bff815 	stw	r2,-32(fp)
 2003500:	e0bffd17 	ldw	r2,-12(fp)
 2003504:	10800143 	ldbu	r2,5(r2)
 2003508:	10803fcc 	andi	r2,r2,255
 200350c:	1080201c 	xori	r2,r2,128
 2003510:	10bfe004 	addi	r2,r2,-128
 2003514:	10000b26 	beq	r2,zero,2003544 <SetStrValueItem+0x5dc>
 2003518:	e0bff804 	addi	r2,fp,-32
 200351c:	e13ffc17 	ldw	r4,-16(fp)
 2003520:	e17ffd17 	ldw	r5,-12(fp)
 2003524:	100d883a 	mov	r6,r2
 2003528:	200384c0 	call	200384c <profile_userset_value>
 200352c:	10803fcc 	andi	r2,r2,255
 2003530:	1080201c 	xori	r2,r2,128
 2003534:	10bfe004 	addi	r2,r2,-128
 2003538:	1000021e 	bne	r2,zero,2003544 <SetStrValueItem+0x5dc>
 200353c:	0005883a 	mov	r2,zero
 2003540:	00000606 	br	200355c <SetStrValueItem+0x5f4>
 2003544:	e0bffd17 	ldw	r2,-12(fp)
 2003548:	10800317 	ldw	r2,12(r2)
 200354c:	e0fff817 	ldw	r3,-32(fp)
 2003550:	10c00015 	stw	r3,0(r2)
 2003554:	0001883a 	nop
 2003558:	00800044 	movi	r2,1
 200355c:	e037883a 	mov	sp,fp
 2003560:	dfc00117 	ldw	ra,4(sp)
 2003564:	df000017 	ldw	fp,0(sp)
 2003568:	dec00204 	addi	sp,sp,8
 200356c:	f800283a 	ret

02003570 <ColorDynamicParameters>:
 2003570:	defffe04 	addi	sp,sp,-8
 2003574:	dfc00115 	stw	ra,4(sp)
 2003578:	df000015 	stw	fp,0(sp)
 200357c:	d839883a 	mov	fp,sp
 2003580:	010081b4 	movhi	r4,518
 2003584:	212d3504 	addi	r4,r4,-19244
 2003588:	20036c80 	call	20036c8 <get_block_color>
 200358c:	10803fcc 	andi	r2,r2,255
 2003590:	d0a02b15 	stw	r2,-32596(gp)
 2003594:	e037883a 	mov	sp,fp
 2003598:	dfc00117 	ldw	ra,4(sp)
 200359c:	df000017 	ldw	fp,0(sp)
 20035a0:	dec00204 	addi	sp,sp,8
 20035a4:	f800283a 	ret

020035a8 <get_param_by_id>:
 20035a8:	defff904 	addi	sp,sp,-28
 20035ac:	df000615 	stw	fp,24(sp)
 20035b0:	df000604 	addi	fp,sp,24
 20035b4:	e13ffe15 	stw	r4,-8(fp)
 20035b8:	e17fff15 	stw	r5,-4(fp)
 20035bc:	e03ffa15 	stw	zero,-24(fp)
 20035c0:	e03ffa15 	stw	zero,-24(fp)
 20035c4:	00003806 	br	20036a8 <get_param_by_id+0x100>
 20035c8:	e0fffe17 	ldw	r3,-8(fp)
 20035cc:	e0bffa17 	ldw	r2,-24(fp)
 20035d0:	10800984 	addi	r2,r2,38
 20035d4:	1085883a 	add	r2,r2,r2
 20035d8:	1885883a 	add	r2,r3,r2
 20035dc:	1080000b 	ldhu	r2,0(r2)
 20035e0:	10bfffcc 	andi	r2,r2,65535
 20035e4:	10000826 	beq	r2,zero,2003608 <get_param_by_id+0x60>
 20035e8:	e0fffe17 	ldw	r3,-8(fp)
 20035ec:	e0bffa17 	ldw	r2,-24(fp)
 20035f0:	108001c4 	addi	r2,r2,7
 20035f4:	1085883a 	add	r2,r2,r2
 20035f8:	1085883a 	add	r2,r2,r2
 20035fc:	1885883a 	add	r2,r3,r2
 2003600:	10800017 	ldw	r2,0(r2)
 2003604:	1000011e 	bne	r2,zero,200360c <get_param_by_id+0x64>
 2003608:	00002406 	br	200369c <get_param_by_id+0xf4>
 200360c:	e0fffe17 	ldw	r3,-8(fp)
 2003610:	e0bffa17 	ldw	r2,-24(fp)
 2003614:	10800984 	addi	r2,r2,38
 2003618:	1085883a 	add	r2,r2,r2
 200361c:	1885883a 	add	r2,r3,r2
 2003620:	1080000b 	ldhu	r2,0(r2)
 2003624:	10bfffcc 	andi	r2,r2,65535
 2003628:	e0bffd15 	stw	r2,-12(fp)
 200362c:	e0fffe17 	ldw	r3,-8(fp)
 2003630:	e0bffa17 	ldw	r2,-24(fp)
 2003634:	108001c4 	addi	r2,r2,7
 2003638:	1085883a 	add	r2,r2,r2
 200363c:	1085883a 	add	r2,r2,r2
 2003640:	1885883a 	add	r2,r3,r2
 2003644:	10800017 	ldw	r2,0(r2)
 2003648:	e0bffb15 	stw	r2,-20(fp)
 200364c:	e03ffc0d 	sth	zero,-16(fp)
 2003650:	e03ffc0d 	sth	zero,-16(fp)
 2003654:	00000e06 	br	2003690 <get_param_by_id+0xe8>
 2003658:	e0bffb17 	ldw	r2,-20(fp)
 200365c:	10000626 	beq	r2,zero,2003678 <get_param_by_id+0xd0>
 2003660:	e0bffb17 	ldw	r2,-20(fp)
 2003664:	10c00017 	ldw	r3,0(r2)
 2003668:	e0bfff17 	ldw	r2,-4(fp)
 200366c:	1880021e 	bne	r3,r2,2003678 <get_param_by_id+0xd0>
 2003670:	e0bffb17 	ldw	r2,-20(fp)
 2003674:	00001006 	br	20036b8 <get_param_by_id+0x110>
 2003678:	e0bffc0b 	ldhu	r2,-16(fp)
 200367c:	10800044 	addi	r2,r2,1
 2003680:	e0bffc0d 	sth	r2,-16(fp)
 2003684:	e0bffb17 	ldw	r2,-20(fp)
 2003688:	10800904 	addi	r2,r2,36
 200368c:	e0bffb15 	stw	r2,-20(fp)
 2003690:	e0fffc0b 	ldhu	r3,-16(fp)
 2003694:	e0bffd17 	ldw	r2,-12(fp)
 2003698:	18bfef36 	bltu	r3,r2,2003658 <__alt_data_end+0xff003658>
 200369c:	e0bffa17 	ldw	r2,-24(fp)
 20036a0:	10800044 	addi	r2,r2,1
 20036a4:	e0bffa15 	stw	r2,-24(fp)
 20036a8:	e0bffa17 	ldw	r2,-24(fp)
 20036ac:	10800310 	cmplti	r2,r2,12
 20036b0:	103fc51e 	bne	r2,zero,20035c8 <__alt_data_end+0xff0035c8>
 20036b4:	0005883a 	mov	r2,zero
 20036b8:	e037883a 	mov	sp,fp
 20036bc:	df000017 	ldw	fp,0(sp)
 20036c0:	dec00104 	addi	sp,sp,4
 20036c4:	f800283a 	ret

020036c8 <get_block_color>:
 20036c8:	defffb04 	addi	sp,sp,-20
 20036cc:	df000415 	stw	fp,16(sp)
 20036d0:	df000404 	addi	fp,sp,16
 20036d4:	e13fff15 	stw	r4,-4(fp)
 20036d8:	008000c4 	movi	r2,3
 20036dc:	e0bffc05 	stb	r2,-16(fp)
 20036e0:	e0bfff17 	ldw	r2,-4(fp)
 20036e4:	10800817 	ldw	r2,32(r2)
 20036e8:	e0bffd15 	stw	r2,-12(fp)
 20036ec:	e0bfff17 	ldw	r2,-4(fp)
 20036f0:	1080138b 	ldhu	r2,78(r2)
 20036f4:	e0bffe8d 	sth	r2,-6(fp)
 20036f8:	e03ffe0d 	sth	zero,-8(fp)
 20036fc:	e03ffe0d 	sth	zero,-8(fp)
 2003700:	00001406 	br	2003754 <get_block_color+0x8c>
 2003704:	e0bffd17 	ldw	r2,-12(fp)
 2003708:	10800717 	ldw	r2,28(r2)
 200370c:	10000b26 	beq	r2,zero,200373c <get_block_color+0x74>
 2003710:	e0fffc03 	ldbu	r3,-16(fp)
 2003714:	e0bffd17 	ldw	r2,-12(fp)
 2003718:	10800717 	ldw	r2,28(r2)
 200371c:	1080000b 	ldhu	r2,0(r2)
 2003720:	18ffffcc 	andi	r3,r3,65535
 2003724:	10bfffcc 	andi	r2,r2,65535
 2003728:	1880042e 	bgeu	r3,r2,200373c <get_block_color+0x74>
 200372c:	e0bffd17 	ldw	r2,-12(fp)
 2003730:	10800717 	ldw	r2,28(r2)
 2003734:	1080000b 	ldhu	r2,0(r2)
 2003738:	e0bffc05 	stb	r2,-16(fp)
 200373c:	e0bffe0b 	ldhu	r2,-8(fp)
 2003740:	10800044 	addi	r2,r2,1
 2003744:	e0bffe0d 	sth	r2,-8(fp)
 2003748:	e0bffd17 	ldw	r2,-12(fp)
 200374c:	10800904 	addi	r2,r2,36
 2003750:	e0bffd15 	stw	r2,-12(fp)
 2003754:	e0fffe0b 	ldhu	r3,-8(fp)
 2003758:	e0bffe8b 	ldhu	r2,-6(fp)
 200375c:	18bfe936 	bltu	r3,r2,2003704 <__alt_data_end+0xff003704>
 2003760:	e0bffc03 	ldbu	r2,-16(fp)
 2003764:	e037883a 	mov	sp,fp
 2003768:	df000017 	ldw	fp,0(sp)
 200376c:	dec00104 	addi	sp,sp,4
 2003770:	f800283a 	ret
 2003774:	defffe04 	addi	sp,sp,-8
 2003778:	df000115 	stw	fp,4(sp)
 200377c:	df000104 	addi	fp,sp,4
 2003780:	e13fff15 	stw	r4,-4(fp)
 2003784:	e037883a 	mov	sp,fp
 2003788:	df000017 	ldw	fp,0(sp)
 200378c:	dec00104 	addi	sp,sp,4
 2003790:	f800283a 	ret
 2003794:	defffe04 	addi	sp,sp,-8
 2003798:	df000115 	stw	fp,4(sp)
 200379c:	df000104 	addi	fp,sp,4
 20037a0:	e13fff15 	stw	r4,-4(fp)
 20037a4:	e037883a 	mov	sp,fp
 20037a8:	df000017 	ldw	fp,0(sp)
 20037ac:	dec00104 	addi	sp,sp,4
 20037b0:	f800283a 	ret

020037b4 <profile_userget_value>:
 20037b4:	defffc04 	addi	sp,sp,-16
 20037b8:	dfc00315 	stw	ra,12(sp)
 20037bc:	df000215 	stw	fp,8(sp)
 20037c0:	df000204 	addi	fp,sp,8
 20037c4:	e13ffe15 	stw	r4,-8(fp)
 20037c8:	e17fff15 	stw	r5,-4(fp)
 20037cc:	e0bfff17 	ldw	r2,-4(fp)
 20037d0:	10800017 	ldw	r2,0(r2)
 20037d4:	1000081e 	bne	r2,zero,20037f8 <profile_userget_value+0x44>
 20037d8:	e0bfff17 	ldw	r2,-4(fp)
 20037dc:	10800103 	ldbu	r2,4(r2)
 20037e0:	10803fcc 	andi	r2,r2,255
 20037e4:	1080201c 	xori	r2,r2,128
 20037e8:	10bfe004 	addi	r2,r2,-128
 20037ec:	1000021e 	bne	r2,zero,20037f8 <profile_userget_value+0x44>
 20037f0:	0005883a 	mov	r2,zero
 20037f4:	00000606 	br	2003810 <profile_userget_value+0x5c>
 20037f8:	e13ffe17 	ldw	r4,-8(fp)
 20037fc:	e17fff17 	ldw	r5,-4(fp)
 2003800:	2025ed40 	call	2025ed4 <KURS_userget_value>
 2003804:	10803fcc 	andi	r2,r2,255
 2003808:	1080201c 	xori	r2,r2,128
 200380c:	10bfe004 	addi	r2,r2,-128
 2003810:	e037883a 	mov	sp,fp
 2003814:	dfc00117 	ldw	ra,4(sp)
 2003818:	df000017 	ldw	fp,0(sp)
 200381c:	dec00204 	addi	sp,sp,8
 2003820:	f800283a 	ret
 2003824:	defffd04 	addi	sp,sp,-12
 2003828:	df000215 	stw	fp,8(sp)
 200382c:	df000204 	addi	fp,sp,8
 2003830:	e13ffe15 	stw	r4,-8(fp)
 2003834:	e17fff15 	stw	r5,-4(fp)
 2003838:	0005883a 	mov	r2,zero
 200383c:	e037883a 	mov	sp,fp
 2003840:	df000017 	ldw	fp,0(sp)
 2003844:	dec00104 	addi	sp,sp,4
 2003848:	f800283a 	ret

0200384c <profile_userset_value>:
 200384c:	defffb04 	addi	sp,sp,-20
 2003850:	dfc00415 	stw	ra,16(sp)
 2003854:	df000315 	stw	fp,12(sp)
 2003858:	df000304 	addi	fp,sp,12
 200385c:	e13ffd15 	stw	r4,-12(fp)
 2003860:	e17ffe15 	stw	r5,-8(fp)
 2003864:	e1bfff15 	stw	r6,-4(fp)
 2003868:	e0bffe17 	ldw	r2,-8(fp)
 200386c:	10800017 	ldw	r2,0(r2)
 2003870:	1000081e 	bne	r2,zero,2003894 <profile_userset_value+0x48>
 2003874:	e0bffe17 	ldw	r2,-8(fp)
 2003878:	10800143 	ldbu	r2,5(r2)
 200387c:	10803fcc 	andi	r2,r2,255
 2003880:	1080201c 	xori	r2,r2,128
 2003884:	10bfe004 	addi	r2,r2,-128
 2003888:	1000021e 	bne	r2,zero,2003894 <profile_userset_value+0x48>
 200388c:	0005883a 	mov	r2,zero
 2003890:	00000406 	br	20038a4 <profile_userset_value+0x58>
 2003894:	e13ffd17 	ldw	r4,-12(fp)
 2003898:	e17ffe17 	ldw	r5,-8(fp)
 200389c:	e1bfff17 	ldw	r6,-4(fp)
 20038a0:	2026cbc0 	call	2026cbc <KURS_userset_value>
 20038a4:	e037883a 	mov	sp,fp
 20038a8:	dfc00117 	ldw	ra,4(sp)
 20038ac:	df000017 	ldw	fp,0(sp)
 20038b0:	dec00204 	addi	sp,sp,8
 20038b4:	f800283a 	ret
 20038b8:	defffc04 	addi	sp,sp,-16
 20038bc:	df000315 	stw	fp,12(sp)
 20038c0:	df000304 	addi	fp,sp,12
 20038c4:	e13ffd15 	stw	r4,-12(fp)
 20038c8:	e17ffe15 	stw	r5,-8(fp)
 20038cc:	e1bfff15 	stw	r6,-4(fp)
 20038d0:	0005883a 	mov	r2,zero
 20038d4:	e037883a 	mov	sp,fp
 20038d8:	df000017 	ldw	fp,0(sp)
 20038dc:	dec00104 	addi	sp,sp,4
 20038e0:	f800283a 	ret

020038e4 <user_get_color>:
 20038e4:	defffc04 	addi	sp,sp,-16
 20038e8:	dfc00315 	stw	ra,12(sp)
 20038ec:	df000215 	stw	fp,8(sp)
 20038f0:	df000204 	addi	fp,sp,8
 20038f4:	e13ffe15 	stw	r4,-8(fp)
 20038f8:	e17fff15 	stw	r5,-4(fp)
 20038fc:	e0bfff17 	ldw	r2,-4(fp)
 2003900:	10800917 	ldw	r2,36(r2)
 2003904:	10800017 	ldw	r2,0(r2)
 2003908:	1000061e 	bne	r2,zero,2003924 <user_get_color+0x40>
 200390c:	e0bfff17 	ldw	r2,-4(fp)
 2003910:	00c00044 	movi	r3,1
 2003914:	10c0000d 	sth	r3,0(r2)
 2003918:	e0bfff17 	ldw	r2,-4(fp)
 200391c:	1080000b 	ldhu	r2,0(r2)
 2003920:	00000606 	br	200393c <user_get_color+0x58>
 2003924:	e13ffe17 	ldw	r4,-8(fp)
 2003928:	e17fff17 	ldw	r5,-4(fp)
 200392c:	20275380 	call	2027538 <KURS_userget_color>
 2003930:	10803fcc 	andi	r2,r2,255
 2003934:	1080201c 	xori	r2,r2,128
 2003938:	10bfe004 	addi	r2,r2,-128
 200393c:	e037883a 	mov	sp,fp
 2003940:	dfc00117 	ldw	ra,4(sp)
 2003944:	df000017 	ldw	fp,0(sp)
 2003948:	dec00204 	addi	sp,sp,8
 200394c:	f800283a 	ret
 2003950:	defffd04 	addi	sp,sp,-12
 2003954:	df000215 	stw	fp,8(sp)
 2003958:	df000204 	addi	fp,sp,8
 200395c:	e13ffe15 	stw	r4,-8(fp)
 2003960:	e17fff15 	stw	r5,-4(fp)
 2003964:	e0bfff17 	ldw	r2,-4(fp)
 2003968:	1080000b 	ldhu	r2,0(r2)
 200396c:	e037883a 	mov	sp,fp
 2003970:	df000017 	ldw	fp,0(sp)
 2003974:	dec00104 	addi	sp,sp,4
 2003978:	f800283a 	ret

0200397c <KURS_HandleRequests>:
 200397c:	defffb04 	addi	sp,sp,-20
 2003980:	dfc00415 	stw	ra,16(sp)
 2003984:	df000315 	stw	fp,12(sp)
 2003988:	df000304 	addi	fp,sp,12
 200398c:	e13ffd15 	stw	r4,-12(fp)
 2003990:	e17ffe15 	stw	r5,-8(fp)
 2003994:	e1bfff15 	stw	r6,-4(fp)
 2003998:	e0bffd17 	ldw	r2,-12(fp)
 200399c:	10800044 	addi	r2,r2,1
 20039a0:	10800003 	ldbu	r2,0(r2)
 20039a4:	10803fcc 	andi	r2,r2,255
 20039a8:	1080201c 	xori	r2,r2,128
 20039ac:	10bfe004 	addi	r2,r2,-128
 20039b0:	10c01fa8 	cmpgeui	r3,r2,126
 20039b4:	1800c51e 	bne	r3,zero,2003ccc <KURS_HandleRequests+0x350>
 20039b8:	100690ba 	slli	r3,r2,2
 20039bc:	00808034 	movhi	r2,512
 20039c0:	108e7404 	addi	r2,r2,14800
 20039c4:	1885883a 	add	r2,r3,r2
 20039c8:	10800017 	ldw	r2,0(r2)
 20039cc:	1000683a 	jmp	r2
 20039d0:	02003ccc 	andi	r8,zero,243
 20039d4:	02003bc8 	cmpgei	r8,zero,239
 20039d8:	02003ccc 	andi	r8,zero,243
 20039dc:	02003ccc 	andi	r8,zero,243
 20039e0:	02003ccc 	andi	r8,zero,243
 20039e4:	02003ccc 	andi	r8,zero,243
 20039e8:	02003ccc 	andi	r8,zero,243
 20039ec:	02003ccc 	andi	r8,zero,243
 20039f0:	02003ccc 	andi	r8,zero,243
 20039f4:	02003ccc 	andi	r8,zero,243
 20039f8:	02003ccc 	andi	r8,zero,243
 20039fc:	02003ccc 	andi	r8,zero,243
 2003a00:	02003ccc 	andi	r8,zero,243
 2003a04:	02003ccc 	andi	r8,zero,243
 2003a08:	02003ccc 	andi	r8,zero,243
 2003a0c:	02003bf0 	cmpltui	r8,zero,239
 2003a10:	02003ccc 	andi	r8,zero,243
 2003a14:	02003ccc 	andi	r8,zero,243
 2003a18:	02003ccc 	andi	r8,zero,243
 2003a1c:	02003ccc 	andi	r8,zero,243
 2003a20:	02003ccc 	andi	r8,zero,243
 2003a24:	02003ccc 	andi	r8,zero,243
 2003a28:	02003ccc 	andi	r8,zero,243
 2003a2c:	02003ccc 	andi	r8,zero,243
 2003a30:	02003ccc 	andi	r8,zero,243
 2003a34:	02003ccc 	andi	r8,zero,243
 2003a38:	02003ccc 	andi	r8,zero,243
 2003a3c:	02003ccc 	andi	r8,zero,243
 2003a40:	02003ccc 	andi	r8,zero,243
 2003a44:	02003ccc 	andi	r8,zero,243
 2003a48:	02003ccc 	andi	r8,zero,243
 2003a4c:	02003ccc 	andi	r8,zero,243
 2003a50:	02003ccc 	andi	r8,zero,243
 2003a54:	02003ccc 	andi	r8,zero,243
 2003a58:	02003ccc 	andi	r8,zero,243
 2003a5c:	02003ccc 	andi	r8,zero,243
 2003a60:	02003ccc 	andi	r8,zero,243
 2003a64:	02003ccc 	andi	r8,zero,243
 2003a68:	02003ccc 	andi	r8,zero,243
 2003a6c:	02003ccc 	andi	r8,zero,243
 2003a70:	02003ccc 	andi	r8,zero,243
 2003a74:	02003ccc 	andi	r8,zero,243
 2003a78:	02003ccc 	andi	r8,zero,243
 2003a7c:	02003ccc 	andi	r8,zero,243
 2003a80:	02003ccc 	andi	r8,zero,243
 2003a84:	02003ccc 	andi	r8,zero,243
 2003a88:	02003ccc 	andi	r8,zero,243
 2003a8c:	02003ccc 	andi	r8,zero,243
 2003a90:	02003ccc 	andi	r8,zero,243
 2003a94:	02003ccc 	andi	r8,zero,243
 2003a98:	02003ccc 	andi	r8,zero,243
 2003a9c:	02003ccc 	andi	r8,zero,243
 2003aa0:	02003ccc 	andi	r8,zero,243
 2003aa4:	02003ccc 	andi	r8,zero,243
 2003aa8:	02003ccc 	andi	r8,zero,243
 2003aac:	02003ccc 	andi	r8,zero,243
 2003ab0:	02003ccc 	andi	r8,zero,243
 2003ab4:	02003ccc 	andi	r8,zero,243
 2003ab8:	02003ccc 	andi	r8,zero,243
 2003abc:	02003ccc 	andi	r8,zero,243
 2003ac0:	02003ccc 	andi	r8,zero,243
 2003ac4:	02003ccc 	andi	r8,zero,243
 2003ac8:	02003ccc 	andi	r8,zero,243
 2003acc:	02003ccc 	andi	r8,zero,243
 2003ad0:	02003ccc 	andi	r8,zero,243
 2003ad4:	02003ccc 	andi	r8,zero,243
 2003ad8:	02003ccc 	andi	r8,zero,243
 2003adc:	02003ccc 	andi	r8,zero,243
 2003ae0:	02003ccc 	andi	r8,zero,243
 2003ae4:	02003ccc 	andi	r8,zero,243
 2003ae8:	02003ccc 	andi	r8,zero,243
 2003aec:	02003ccc 	andi	r8,zero,243
 2003af0:	02003ccc 	andi	r8,zero,243
 2003af4:	02003bdc 	xori	r8,zero,239
 2003af8:	02003ccc 	andi	r8,zero,243
 2003afc:	02003ccc 	andi	r8,zero,243
 2003b00:	02003ccc 	andi	r8,zero,243
 2003b04:	02003ccc 	andi	r8,zero,243
 2003b08:	02003ccc 	andi	r8,zero,243
 2003b0c:	02003ccc 	andi	r8,zero,243
 2003b10:	02003ccc 	andi	r8,zero,243
 2003b14:	02003ccc 	andi	r8,zero,243
 2003b18:	02003ccc 	andi	r8,zero,243
 2003b1c:	02003ccc 	andi	r8,zero,243
 2003b20:	02003ccc 	andi	r8,zero,243
 2003b24:	02003ccc 	andi	r8,zero,243
 2003b28:	02003ccc 	andi	r8,zero,243
 2003b2c:	02003ccc 	andi	r8,zero,243
 2003b30:	02003ccc 	andi	r8,zero,243
 2003b34:	02003ccc 	andi	r8,zero,243
 2003b38:	02003ccc 	andi	r8,zero,243
 2003b3c:	02003ccc 	andi	r8,zero,243
 2003b40:	02003ccc 	andi	r8,zero,243
 2003b44:	02003ccc 	andi	r8,zero,243
 2003b48:	02003ccc 	andi	r8,zero,243
 2003b4c:	02003ccc 	andi	r8,zero,243
 2003b50:	02003ccc 	andi	r8,zero,243
 2003b54:	02003c90 	cmplti	r8,zero,242
 2003b58:	02003ca4 	muli	r8,zero,242
 2003b5c:	02003cb8 	rdprs	r8,zero,242
 2003b60:	02003ccc 	andi	r8,zero,243
 2003b64:	02003ccc 	andi	r8,zero,243
 2003b68:	02003ccc 	andi	r8,zero,243
 2003b6c:	02003ccc 	andi	r8,zero,243
 2003b70:	02003ccc 	andi	r8,zero,243
 2003b74:	02003ccc 	andi	r8,zero,243
 2003b78:	02003ccc 	andi	r8,zero,243
 2003b7c:	02003ccc 	andi	r8,zero,243
 2003b80:	02003ccc 	andi	r8,zero,243
 2003b84:	02003ccc 	andi	r8,zero,243
 2003b88:	02003ccc 	andi	r8,zero,243
 2003b8c:	02003ccc 	andi	r8,zero,243
 2003b90:	02003ccc 	andi	r8,zero,243
 2003b94:	02003c18 	cmpnei	r8,zero,240
 2003b98:	02003c2c 	andhi	r8,zero,240
 2003b9c:	02003c04 	movi	r8,240
 2003ba0:	02003ccc 	andi	r8,zero,243
 2003ba4:	02003ccc 	andi	r8,zero,243
 2003ba8:	02003c2c 	andhi	r8,zero,240
 2003bac:	02003c18 	cmpnei	r8,zero,240
 2003bb0:	02003ccc 	andi	r8,zero,243
 2003bb4:	02003ccc 	andi	r8,zero,243
 2003bb8:	02003c54 	movui	r8,241
 2003bbc:	02003c68 	cmpgeui	r8,zero,241
 2003bc0:	02003c40 	call	2003c4 <__alt_mem_constants+0x1fe3c4>
 2003bc4:	02003c7c 	xorhi	r8,zero,241
 2003bc8:	e13ffd17 	ldw	r4,-12(fp)
 2003bcc:	e17ffe17 	ldw	r5,-8(fp)
 2003bd0:	e1bfff17 	ldw	r6,-4(fp)
 2003bd4:	200054c0 	call	200054c <HandleKursRdDeviceClass>
 2003bd8:	00004106 	br	2003ce0 <KURS_HandleRequests+0x364>
 2003bdc:	e13ffd17 	ldw	r4,-12(fp)
 2003be0:	e17ffe17 	ldw	r5,-8(fp)
 2003be4:	e1bfff17 	ldw	r6,-4(fp)
 2003be8:	20005f00 	call	20005f0 <HandleKursEnableSetParams>
 2003bec:	00003c06 	br	2003ce0 <KURS_HandleRequests+0x364>
 2003bf0:	e13ffd17 	ldw	r4,-12(fp)
 2003bf4:	e17ffe17 	ldw	r5,-8(fp)
 2003bf8:	e1bfff17 	ldw	r6,-4(fp)
 2003bfc:	20065800 	call	2006580 <HandleKursSafeReprogramming>
 2003c00:	00003706 	br	2003ce0 <KURS_HandleRequests+0x364>
 2003c04:	e13ffd17 	ldw	r4,-12(fp)
 2003c08:	e17ffe17 	ldw	r5,-8(fp)
 2003c0c:	e1bfff17 	ldw	r6,-4(fp)
 2003c10:	20006b40 	call	20006b4 <HandleKursRdProfile>
 2003c14:	00003206 	br	2003ce0 <KURS_HandleRequests+0x364>
 2003c18:	e13ffd17 	ldw	r4,-12(fp)
 2003c1c:	e17ffe17 	ldw	r5,-8(fp)
 2003c20:	e1bfff17 	ldw	r6,-4(fp)
 2003c24:	20008900 	call	2000890 <HandleKursRdStrValueAndColor>
 2003c28:	00002d06 	br	2003ce0 <KURS_HandleRequests+0x364>
 2003c2c:	e13ffd17 	ldw	r4,-12(fp)
 2003c30:	e17ffe17 	ldw	r5,-8(fp)
 2003c34:	e1bfff17 	ldw	r6,-4(fp)
 2003c38:	2000db00 	call	2000db0 <HandleKursSetParamValue>
 2003c3c:	00002806 	br	2003ce0 <KURS_HandleRequests+0x364>
 2003c40:	e13ffd17 	ldw	r4,-12(fp)
 2003c44:	e17ffe17 	ldw	r5,-8(fp)
 2003c48:	e1bfff17 	ldw	r6,-4(fp)
 2003c4c:	200142c0 	call	200142c <HandleKursSetColorDegradeAndFailure>
 2003c50:	00002306 	br	2003ce0 <KURS_HandleRequests+0x364>
 2003c54:	e13ffd17 	ldw	r4,-12(fp)
 2003c58:	e17ffe17 	ldw	r5,-8(fp)
 2003c5c:	e1bfff17 	ldw	r6,-4(fp)
 2003c60:	2001ad40 	call	2001ad4 <HandleKursWriteLangPackCommand>
 2003c64:	00001e06 	br	2003ce0 <KURS_HandleRequests+0x364>
 2003c68:	e13ffd17 	ldw	r4,-12(fp)
 2003c6c:	e17ffe17 	ldw	r5,-8(fp)
 2003c70:	e1bfff17 	ldw	r6,-4(fp)
 2003c74:	2001d280 	call	2001d28 <HandleKursReadLangPackCommand>
 2003c78:	00001906 	br	2003ce0 <KURS_HandleRequests+0x364>
 2003c7c:	e13ffd17 	ldw	r4,-12(fp)
 2003c80:	e17ffe17 	ldw	r5,-8(fp)
 2003c84:	e1bfff17 	ldw	r6,-4(fp)
 2003c88:	20018880 	call	2001888 <HandleKursGetColorDegradeAndFailure>
 2003c8c:	00001406 	br	2003ce0 <KURS_HandleRequests+0x364>
 2003c90:	e13ffd17 	ldw	r4,-12(fp)
 2003c94:	e17ffe17 	ldw	r5,-8(fp)
 2003c98:	e1bfff17 	ldw	r6,-4(fp)
 2003c9c:	20020500 	call	2002050 <HandleKursExtendedRdDeviceClass>
 2003ca0:	00000f06 	br	2003ce0 <KURS_HandleRequests+0x364>
 2003ca4:	e13ffd17 	ldw	r4,-12(fp)
 2003ca8:	e17ffe17 	ldw	r5,-8(fp)
 2003cac:	e1bfff17 	ldw	r6,-4(fp)
 2003cb0:	20022fc0 	call	20022fc <HandleKursExtendedEnableSetParams>
 2003cb4:	00000a06 	br	2003ce0 <KURS_HandleRequests+0x364>
 2003cb8:	e13ffd17 	ldw	r4,-12(fp)
 2003cbc:	e17ffe17 	ldw	r5,-8(fp)
 2003cc0:	e1bfff17 	ldw	r6,-4(fp)
 2003cc4:	20023fc0 	call	20023fc <HandleKursExtendedConfigRdWr>
 2003cc8:	00000506 	br	2003ce0 <KURS_HandleRequests+0x364>
 2003ccc:	e13ffd17 	ldw	r4,-12(fp)
 2003cd0:	e17ffe17 	ldw	r5,-8(fp)
 2003cd4:	e1bfff17 	ldw	r6,-4(fp)
 2003cd8:	2001fa80 	call	2001fa8 <HandleKursUnknownCommand>
 2003cdc:	0001883a 	nop
 2003ce0:	e037883a 	mov	sp,fp
 2003ce4:	dfc00117 	ldw	ra,4(sp)
 2003ce8:	df000017 	ldw	fp,0(sp)
 2003cec:	dec00204 	addi	sp,sp,8
 2003cf0:	f800283a 	ret

02003cf4 <sprintf_s32>:
 2003cf4:	defffb04 	addi	sp,sp,-20
 2003cf8:	df000415 	stw	fp,16(sp)
 2003cfc:	df000404 	addi	fp,sp,16
 2003d00:	e13ffe15 	stw	r4,-8(fp)
 2003d04:	e17fff15 	stw	r5,-4(fp)
 2003d08:	e0bffe17 	ldw	r2,-8(fp)
 2003d0c:	e0bffd15 	stw	r2,-12(fp)
 2003d10:	e03ffc05 	stb	zero,-16(fp)
 2003d14:	e03ffc45 	stb	zero,-15(fp)
 2003d18:	e0bfff17 	ldw	r2,-4(fp)
 2003d1c:	1000080e 	bge	r2,zero,2003d40 <sprintf_s32+0x4c>
 2003d20:	e0bffe17 	ldw	r2,-8(fp)
 2003d24:	10c00044 	addi	r3,r2,1
 2003d28:	e0fffe15 	stw	r3,-8(fp)
 2003d2c:	00c00b44 	movi	r3,45
 2003d30:	10c00005 	stb	r3,0(r2)
 2003d34:	e0bfff17 	ldw	r2,-4(fp)
 2003d38:	0085c83a 	sub	r2,zero,r2
 2003d3c:	e0bfff15 	stw	r2,-4(fp)
 2003d40:	00000806 	br	2003d64 <sprintf_s32+0x70>
 2003d44:	e0bffc43 	ldbu	r2,-15(fp)
 2003d48:	10800044 	addi	r2,r2,1
 2003d4c:	e0bffc45 	stb	r2,-15(fp)
 2003d50:	e0ffff17 	ldw	r3,-4(fp)
 2003d54:	00b11974 	movhi	r2,50277
 2003d58:	108d8004 	addi	r2,r2,13824
 2003d5c:	1885883a 	add	r2,r3,r2
 2003d60:	e0bfff15 	stw	r2,-4(fp)
 2003d64:	e0ffff17 	ldw	r3,-4(fp)
 2003d68:	008ee6f4 	movhi	r2,15259
 2003d6c:	10b27fc4 	addi	r2,r2,-13825
 2003d70:	10fff416 	blt	r2,r3,2003d44 <__alt_data_end+0xff003d44>
 2003d74:	e0bffc47 	ldb	r2,-15(fp)
 2003d78:	10000226 	beq	r2,zero,2003d84 <sprintf_s32+0x90>
 2003d7c:	00800044 	movi	r2,1
 2003d80:	e0bffc05 	stb	r2,-16(fp)
 2003d84:	e0bffc07 	ldb	r2,-16(fp)
 2003d88:	10000726 	beq	r2,zero,2003da8 <sprintf_s32+0xb4>
 2003d8c:	e0bffe17 	ldw	r2,-8(fp)
 2003d90:	10c00044 	addi	r3,r2,1
 2003d94:	e0fffe15 	stw	r3,-8(fp)
 2003d98:	e0fffc43 	ldbu	r3,-15(fp)
 2003d9c:	18c003cc 	andi	r3,r3,15
 2003da0:	18c00c04 	addi	r3,r3,48
 2003da4:	10c00005 	stb	r3,0(r2)
 2003da8:	e03ffc45 	stb	zero,-15(fp)
 2003dac:	00000806 	br	2003dd0 <sprintf_s32+0xdc>
 2003db0:	e0bffc43 	ldbu	r2,-15(fp)
 2003db4:	10800044 	addi	r2,r2,1
 2003db8:	e0bffc45 	stb	r2,-15(fp)
 2003dbc:	e0ffff17 	ldw	r3,-4(fp)
 2003dc0:	00be82b4 	movhi	r2,64010
 2003dc4:	1087c004 	addi	r2,r2,7936
 2003dc8:	1885883a 	add	r2,r3,r2
 2003dcc:	e0bfff15 	stw	r2,-4(fp)
 2003dd0:	e0ffff17 	ldw	r3,-4(fp)
 2003dd4:	00817db4 	movhi	r2,1526
 2003dd8:	10b83fc4 	addi	r2,r2,-7937
 2003ddc:	10fff416 	blt	r2,r3,2003db0 <__alt_data_end+0xff003db0>
 2003de0:	e0bffc47 	ldb	r2,-15(fp)
 2003de4:	10000226 	beq	r2,zero,2003df0 <sprintf_s32+0xfc>
 2003de8:	00800044 	movi	r2,1
 2003dec:	e0bffc05 	stb	r2,-16(fp)
 2003df0:	e0bffc07 	ldb	r2,-16(fp)
 2003df4:	10000726 	beq	r2,zero,2003e14 <sprintf_s32+0x120>
 2003df8:	e0bffe17 	ldw	r2,-8(fp)
 2003dfc:	10c00044 	addi	r3,r2,1
 2003e00:	e0fffe15 	stw	r3,-8(fp)
 2003e04:	e0fffc43 	ldbu	r3,-15(fp)
 2003e08:	18c003cc 	andi	r3,r3,15
 2003e0c:	18c00c04 	addi	r3,r3,48
 2003e10:	10c00005 	stb	r3,0(r2)
 2003e14:	e03ffc45 	stb	zero,-15(fp)
 2003e18:	00000806 	br	2003e3c <sprintf_s32+0x148>
 2003e1c:	e0bffc43 	ldbu	r2,-15(fp)
 2003e20:	10800044 	addi	r2,r2,1
 2003e24:	e0bffc45 	stb	r2,-15(fp)
 2003e28:	e0ffff17 	ldw	r3,-4(fp)
 2003e2c:	00bfd9f4 	movhi	r2,65383
 2003e30:	109a6004 	addi	r2,r2,27008
 2003e34:	1885883a 	add	r2,r3,r2
 2003e38:	e0bfff15 	stw	r2,-4(fp)
 2003e3c:	e0ffff17 	ldw	r3,-4(fp)
 2003e40:	00802674 	movhi	r2,153
 2003e44:	10a59fc4 	addi	r2,r2,-27009
 2003e48:	10fff416 	blt	r2,r3,2003e1c <__alt_data_end+0xff003e1c>
 2003e4c:	e0bffc47 	ldb	r2,-15(fp)
 2003e50:	10000226 	beq	r2,zero,2003e5c <sprintf_s32+0x168>
 2003e54:	00800044 	movi	r2,1
 2003e58:	e0bffc05 	stb	r2,-16(fp)
 2003e5c:	e0bffc07 	ldb	r2,-16(fp)
 2003e60:	10000726 	beq	r2,zero,2003e80 <sprintf_s32+0x18c>
 2003e64:	e0bffe17 	ldw	r2,-8(fp)
 2003e68:	10c00044 	addi	r3,r2,1
 2003e6c:	e0fffe15 	stw	r3,-8(fp)
 2003e70:	e0fffc43 	ldbu	r3,-15(fp)
 2003e74:	18c003cc 	andi	r3,r3,15
 2003e78:	18c00c04 	addi	r3,r3,48
 2003e7c:	10c00005 	stb	r3,0(r2)
 2003e80:	e03ffc45 	stb	zero,-15(fp)
 2003e84:	00000806 	br	2003ea8 <sprintf_s32+0x1b4>
 2003e88:	e0bffc43 	ldbu	r2,-15(fp)
 2003e8c:	10800044 	addi	r2,r2,1
 2003e90:	e0bffc45 	stb	r2,-15(fp)
 2003e94:	e0ffff17 	ldw	r3,-4(fp)
 2003e98:	00bffc74 	movhi	r2,65521
 2003e9c:	10af7004 	addi	r2,r2,-16960
 2003ea0:	1885883a 	add	r2,r3,r2
 2003ea4:	e0bfff15 	stw	r2,-4(fp)
 2003ea8:	e0ffff17 	ldw	r3,-4(fp)
 2003eac:	008003f4 	movhi	r2,15
 2003eb0:	10908fc4 	addi	r2,r2,16959
 2003eb4:	10fff416 	blt	r2,r3,2003e88 <__alt_data_end+0xff003e88>
 2003eb8:	e0bffc47 	ldb	r2,-15(fp)
 2003ebc:	10000226 	beq	r2,zero,2003ec8 <sprintf_s32+0x1d4>
 2003ec0:	00800044 	movi	r2,1
 2003ec4:	e0bffc05 	stb	r2,-16(fp)
 2003ec8:	e0bffc07 	ldb	r2,-16(fp)
 2003ecc:	10000726 	beq	r2,zero,2003eec <sprintf_s32+0x1f8>
 2003ed0:	e0bffe17 	ldw	r2,-8(fp)
 2003ed4:	10c00044 	addi	r3,r2,1
 2003ed8:	e0fffe15 	stw	r3,-8(fp)
 2003edc:	e0fffc43 	ldbu	r3,-15(fp)
 2003ee0:	18c003cc 	andi	r3,r3,15
 2003ee4:	18c00c04 	addi	r3,r3,48
 2003ee8:	10c00005 	stb	r3,0(r2)
 2003eec:	e03ffc45 	stb	zero,-15(fp)
 2003ef0:	00000806 	br	2003f14 <sprintf_s32+0x220>
 2003ef4:	e0bffc43 	ldbu	r2,-15(fp)
 2003ef8:	10800044 	addi	r2,r2,1
 2003efc:	e0bffc45 	stb	r2,-15(fp)
 2003f00:	e0ffff17 	ldw	r3,-4(fp)
 2003f04:	00bfffb4 	movhi	r2,65534
 2003f08:	109e5804 	addi	r2,r2,31072
 2003f0c:	1885883a 	add	r2,r3,r2
 2003f10:	e0bfff15 	stw	r2,-4(fp)
 2003f14:	e0ffff17 	ldw	r3,-4(fp)
 2003f18:	008000b4 	movhi	r2,2
 2003f1c:	10a1a7c4 	addi	r2,r2,-31073
 2003f20:	10fff416 	blt	r2,r3,2003ef4 <__alt_data_end+0xff003ef4>
 2003f24:	e0bffc47 	ldb	r2,-15(fp)
 2003f28:	10000226 	beq	r2,zero,2003f34 <sprintf_s32+0x240>
 2003f2c:	00800044 	movi	r2,1
 2003f30:	e0bffc05 	stb	r2,-16(fp)
 2003f34:	e0bffc07 	ldb	r2,-16(fp)
 2003f38:	10000726 	beq	r2,zero,2003f58 <sprintf_s32+0x264>
 2003f3c:	e0bffe17 	ldw	r2,-8(fp)
 2003f40:	10c00044 	addi	r3,r2,1
 2003f44:	e0fffe15 	stw	r3,-8(fp)
 2003f48:	e0fffc43 	ldbu	r3,-15(fp)
 2003f4c:	18c003cc 	andi	r3,r3,15
 2003f50:	18c00c04 	addi	r3,r3,48
 2003f54:	10c00005 	stb	r3,0(r2)
 2003f58:	e03ffc45 	stb	zero,-15(fp)
 2003f5c:	00000606 	br	2003f78 <sprintf_s32+0x284>
 2003f60:	e0bffc43 	ldbu	r2,-15(fp)
 2003f64:	10800044 	addi	r2,r2,1
 2003f68:	e0bffc45 	stb	r2,-15(fp)
 2003f6c:	e0bfff17 	ldw	r2,-4(fp)
 2003f70:	10b63c04 	addi	r2,r2,-10000
 2003f74:	e0bfff15 	stw	r2,-4(fp)
 2003f78:	e0bfff17 	ldw	r2,-4(fp)
 2003f7c:	1089c408 	cmpgei	r2,r2,10000
 2003f80:	103ff71e 	bne	r2,zero,2003f60 <__alt_data_end+0xff003f60>
 2003f84:	e0bffc47 	ldb	r2,-15(fp)
 2003f88:	10000226 	beq	r2,zero,2003f94 <sprintf_s32+0x2a0>
 2003f8c:	00800044 	movi	r2,1
 2003f90:	e0bffc05 	stb	r2,-16(fp)
 2003f94:	e0bffc07 	ldb	r2,-16(fp)
 2003f98:	10000726 	beq	r2,zero,2003fb8 <sprintf_s32+0x2c4>
 2003f9c:	e0bffe17 	ldw	r2,-8(fp)
 2003fa0:	10c00044 	addi	r3,r2,1
 2003fa4:	e0fffe15 	stw	r3,-8(fp)
 2003fa8:	e0fffc43 	ldbu	r3,-15(fp)
 2003fac:	18c003cc 	andi	r3,r3,15
 2003fb0:	18c00c04 	addi	r3,r3,48
 2003fb4:	10c00005 	stb	r3,0(r2)
 2003fb8:	e03ffc45 	stb	zero,-15(fp)
 2003fbc:	00000606 	br	2003fd8 <sprintf_s32+0x2e4>
 2003fc0:	e0bffc43 	ldbu	r2,-15(fp)
 2003fc4:	10800044 	addi	r2,r2,1
 2003fc8:	e0bffc45 	stb	r2,-15(fp)
 2003fcc:	e0bfff17 	ldw	r2,-4(fp)
 2003fd0:	10bf0604 	addi	r2,r2,-1000
 2003fd4:	e0bfff15 	stw	r2,-4(fp)
 2003fd8:	e0bfff17 	ldw	r2,-4(fp)
 2003fdc:	1080fa08 	cmpgei	r2,r2,1000
 2003fe0:	103ff71e 	bne	r2,zero,2003fc0 <__alt_data_end+0xff003fc0>
 2003fe4:	e0bffc47 	ldb	r2,-15(fp)
 2003fe8:	10000226 	beq	r2,zero,2003ff4 <sprintf_s32+0x300>
 2003fec:	00800044 	movi	r2,1
 2003ff0:	e0bffc05 	stb	r2,-16(fp)
 2003ff4:	e0bffc07 	ldb	r2,-16(fp)
 2003ff8:	10000726 	beq	r2,zero,2004018 <sprintf_s32+0x324>
 2003ffc:	e0bffe17 	ldw	r2,-8(fp)
 2004000:	10c00044 	addi	r3,r2,1
 2004004:	e0fffe15 	stw	r3,-8(fp)
 2004008:	e0fffc43 	ldbu	r3,-15(fp)
 200400c:	18c003cc 	andi	r3,r3,15
 2004010:	18c00c04 	addi	r3,r3,48
 2004014:	10c00005 	stb	r3,0(r2)
 2004018:	e03ffc45 	stb	zero,-15(fp)
 200401c:	00000606 	br	2004038 <sprintf_s32+0x344>
 2004020:	e0bffc43 	ldbu	r2,-15(fp)
 2004024:	10800044 	addi	r2,r2,1
 2004028:	e0bffc45 	stb	r2,-15(fp)
 200402c:	e0bfff17 	ldw	r2,-4(fp)
 2004030:	10bfe704 	addi	r2,r2,-100
 2004034:	e0bfff15 	stw	r2,-4(fp)
 2004038:	e0bfff17 	ldw	r2,-4(fp)
 200403c:	10801908 	cmpgei	r2,r2,100
 2004040:	103ff71e 	bne	r2,zero,2004020 <__alt_data_end+0xff004020>
 2004044:	e0bffc47 	ldb	r2,-15(fp)
 2004048:	10000226 	beq	r2,zero,2004054 <sprintf_s32+0x360>
 200404c:	00800044 	movi	r2,1
 2004050:	e0bffc05 	stb	r2,-16(fp)
 2004054:	e0bffc07 	ldb	r2,-16(fp)
 2004058:	10000726 	beq	r2,zero,2004078 <sprintf_s32+0x384>
 200405c:	e0bffe17 	ldw	r2,-8(fp)
 2004060:	10c00044 	addi	r3,r2,1
 2004064:	e0fffe15 	stw	r3,-8(fp)
 2004068:	e0fffc43 	ldbu	r3,-15(fp)
 200406c:	18c003cc 	andi	r3,r3,15
 2004070:	18c00c04 	addi	r3,r3,48
 2004074:	10c00005 	stb	r3,0(r2)
 2004078:	e03ffc45 	stb	zero,-15(fp)
 200407c:	00000606 	br	2004098 <sprintf_s32+0x3a4>
 2004080:	e0bffc43 	ldbu	r2,-15(fp)
 2004084:	10800044 	addi	r2,r2,1
 2004088:	e0bffc45 	stb	r2,-15(fp)
 200408c:	e0bfff17 	ldw	r2,-4(fp)
 2004090:	10bffd84 	addi	r2,r2,-10
 2004094:	e0bfff15 	stw	r2,-4(fp)
 2004098:	e0bfff17 	ldw	r2,-4(fp)
 200409c:	10800288 	cmpgei	r2,r2,10
 20040a0:	103ff71e 	bne	r2,zero,2004080 <__alt_data_end+0xff004080>
 20040a4:	e0bffc47 	ldb	r2,-15(fp)
 20040a8:	10000226 	beq	r2,zero,20040b4 <sprintf_s32+0x3c0>
 20040ac:	00800044 	movi	r2,1
 20040b0:	e0bffc05 	stb	r2,-16(fp)
 20040b4:	e0bffc07 	ldb	r2,-16(fp)
 20040b8:	10000726 	beq	r2,zero,20040d8 <sprintf_s32+0x3e4>
 20040bc:	e0bffe17 	ldw	r2,-8(fp)
 20040c0:	10c00044 	addi	r3,r2,1
 20040c4:	e0fffe15 	stw	r3,-8(fp)
 20040c8:	e0fffc43 	ldbu	r3,-15(fp)
 20040cc:	18c003cc 	andi	r3,r3,15
 20040d0:	18c00c04 	addi	r3,r3,48
 20040d4:	10c00005 	stb	r3,0(r2)
 20040d8:	e03ffc45 	stb	zero,-15(fp)
 20040dc:	e0bffe17 	ldw	r2,-8(fp)
 20040e0:	10c00044 	addi	r3,r2,1
 20040e4:	e0fffe15 	stw	r3,-8(fp)
 20040e8:	e0ffff17 	ldw	r3,-4(fp)
 20040ec:	18c003cc 	andi	r3,r3,15
 20040f0:	18c00c04 	addi	r3,r3,48
 20040f4:	10c00005 	stb	r3,0(r2)
 20040f8:	e0bffe17 	ldw	r2,-8(fp)
 20040fc:	10000005 	stb	zero,0(r2)
 2004100:	e0fffe17 	ldw	r3,-8(fp)
 2004104:	e0bffd17 	ldw	r2,-12(fp)
 2004108:	1885c83a 	sub	r2,r3,r2
 200410c:	e037883a 	mov	sp,fp
 2004110:	df000017 	ldw	fp,0(sp)
 2004114:	dec00104 	addi	sp,sp,4
 2004118:	f800283a 	ret

0200411c <StrToU16>:
 200411c:	defffb04 	addi	sp,sp,-20
 2004120:	df000415 	stw	fp,16(sp)
 2004124:	df000404 	addi	fp,sp,16
 2004128:	e13ffe15 	stw	r4,-8(fp)
 200412c:	e17fff15 	stw	r5,-4(fp)
 2004130:	e03ffd05 	stb	zero,-12(fp)
 2004134:	e03ffd45 	stb	zero,-11(fp)
 2004138:	e03ffc15 	stw	zero,-16(fp)
 200413c:	00003306 	br	200420c <StrToU16+0xf0>
 2004140:	e0bffc17 	ldw	r2,-16(fp)
 2004144:	00ffffd4 	movui	r3,65535
 2004148:	1880012e 	bgeu	r3,r2,2004150 <StrToU16+0x34>
 200414c:	00003206 	br	2004218 <StrToU16+0xfc>
 2004150:	e0bffd07 	ldb	r2,-12(fp)
 2004154:	1000081e 	bne	r2,zero,2004178 <StrToU16+0x5c>
 2004158:	e0bffe17 	ldw	r2,-8(fp)
 200415c:	10800003 	ldbu	r2,0(r2)
 2004160:	10803fcc 	andi	r2,r2,255
 2004164:	1080201c 	xori	r2,r2,128
 2004168:	10bfe004 	addi	r2,r2,-128
 200416c:	10800818 	cmpnei	r2,r2,32
 2004170:	1000011e 	bne	r2,zero,2004178 <StrToU16+0x5c>
 2004174:	00002206 	br	2004200 <StrToU16+0xe4>
 2004178:	e0bffe17 	ldw	r2,-8(fp)
 200417c:	10800003 	ldbu	r2,0(r2)
 2004180:	10803fcc 	andi	r2,r2,255
 2004184:	1080201c 	xori	r2,r2,128
 2004188:	10bfe004 	addi	r2,r2,-128
 200418c:	10800c10 	cmplti	r2,r2,48
 2004190:	1000121e 	bne	r2,zero,20041dc <StrToU16+0xc0>
 2004194:	e0bffe17 	ldw	r2,-8(fp)
 2004198:	10800003 	ldbu	r2,0(r2)
 200419c:	10803fcc 	andi	r2,r2,255
 20041a0:	1080201c 	xori	r2,r2,128
 20041a4:	10bfe004 	addi	r2,r2,-128
 20041a8:	10800e88 	cmpgei	r2,r2,58
 20041ac:	10000b1e 	bne	r2,zero,20041dc <StrToU16+0xc0>
 20041b0:	e0bffc17 	ldw	r2,-16(fp)
 20041b4:	10c002a4 	muli	r3,r2,10
 20041b8:	e0bffe17 	ldw	r2,-8(fp)
 20041bc:	10800003 	ldbu	r2,0(r2)
 20041c0:	10803fcc 	andi	r2,r2,255
 20041c4:	108003cc 	andi	r2,r2,15
 20041c8:	1885883a 	add	r2,r3,r2
 20041cc:	e0bffc15 	stw	r2,-16(fp)
 20041d0:	00800044 	movi	r2,1
 20041d4:	e0bffd05 	stb	r2,-12(fp)
 20041d8:	00000906 	br	2004200 <StrToU16+0xe4>
 20041dc:	e0bffd07 	ldb	r2,-12(fp)
 20041e0:	10000626 	beq	r2,zero,20041fc <StrToU16+0xe0>
 20041e4:	e0bffc17 	ldw	r2,-16(fp)
 20041e8:	1007883a 	mov	r3,r2
 20041ec:	e0bfff17 	ldw	r2,-4(fp)
 20041f0:	10c0000d 	sth	r3,0(r2)
 20041f4:	00800044 	movi	r2,1
 20041f8:	00000806 	br	200421c <StrToU16+0x100>
 20041fc:	00000606 	br	2004218 <StrToU16+0xfc>
 2004200:	e0bffe17 	ldw	r2,-8(fp)
 2004204:	10800044 	addi	r2,r2,1
 2004208:	e0bffe15 	stw	r2,-8(fp)
 200420c:	e0bffd47 	ldb	r2,-11(fp)
 2004210:	10800290 	cmplti	r2,r2,10
 2004214:	103fca1e 	bne	r2,zero,2004140 <__alt_data_end+0xff004140>
 2004218:	0005883a 	mov	r2,zero
 200421c:	e037883a 	mov	sp,fp
 2004220:	df000017 	ldw	fp,0(sp)
 2004224:	dec00104 	addi	sp,sp,4
 2004228:	f800283a 	ret

0200422c <sprintf_float>:
 200422c:	deffeb04 	addi	sp,sp,-84
 2004230:	dfc01415 	stw	ra,80(sp)
 2004234:	df001315 	stw	fp,76(sp)
 2004238:	dd801215 	stw	r22,72(sp)
 200423c:	dd401115 	stw	r21,68(sp)
 2004240:	dd001015 	stw	r20,64(sp)
 2004244:	dcc00f15 	stw	r19,60(sp)
 2004248:	dc800e15 	stw	r18,56(sp)
 200424c:	dc400d15 	stw	r17,52(sp)
 2004250:	dc000c15 	stw	r16,48(sp)
 2004254:	df001304 	addi	fp,sp,76
 2004258:	e13ff615 	stw	r4,-40(fp)
 200425c:	e17ff715 	stw	r5,-36(fp)
 2004260:	3005883a 	mov	r2,r6
 2004264:	e0bff805 	stb	r2,-32(fp)
 2004268:	e0bff617 	ldw	r2,-40(fp)
 200426c:	e0bff115 	stw	r2,-60(fp)
 2004270:	e03fee05 	stb	zero,-72(fp)
 2004274:	e0bff717 	ldw	r2,-36(fp)
 2004278:	e0bff315 	stw	r2,-52(fp)
 200427c:	00800044 	movi	r2,1
 2004280:	e0bfef15 	stw	r2,-68(fp)
 2004284:	e03fee05 	stb	zero,-72(fp)
 2004288:	00000606 	br	20042a4 <sprintf_float+0x78>
 200428c:	e0bfee03 	ldbu	r2,-72(fp)
 2004290:	10800044 	addi	r2,r2,1
 2004294:	e0bfee05 	stb	r2,-72(fp)
 2004298:	e0bfef17 	ldw	r2,-68(fp)
 200429c:	108002a4 	muli	r2,r2,10
 20042a0:	e0bfef15 	stw	r2,-68(fp)
 20042a4:	e0ffee07 	ldb	r3,-72(fp)
 20042a8:	e0bff807 	ldb	r2,-32(fp)
 20042ac:	18bff716 	blt	r3,r2,200428c <__alt_data_end+0xff00428c>
 20042b0:	e5bff317 	ldw	r22,-52(fp)
 20042b4:	e13fef17 	ldw	r4,-68(fp)
 20042b8:	2030e180 	call	2030e18 <__floatsisf>
 20042bc:	1007883a 	mov	r3,r2
 20042c0:	b009883a 	mov	r4,r22
 20042c4:	180b883a 	mov	r5,r3
 20042c8:	20304800 	call	2030480 <__mulsf3>
 20042cc:	1007883a 	mov	r3,r2
 20042d0:	1805883a 	mov	r2,r3
 20042d4:	e0bff315 	stw	r2,-52(fp)
 20042d8:	e0fff317 	ldw	r3,-52(fp)
 20042dc:	00802034 	movhi	r2,128
 20042e0:	10bfffc4 	addi	r2,r2,-1
 20042e4:	1884703a 	and	r2,r3,r2
 20042e8:	1029883a 	mov	r20,r2
 20042ec:	002b883a 	mov	r21,zero
 20042f0:	e53ff415 	stw	r20,-48(fp)
 20042f4:	e57ff515 	stw	r21,-44(fp)
 20042f8:	e0bff317 	ldw	r2,-52(fp)
 20042fc:	1004d5fa 	srli	r2,r2,23
 2004300:	1007883a 	mov	r3,r2
 2004304:	00bfffc4 	movi	r2,-1
 2004308:	1884703a 	and	r2,r3,r2
 200430c:	10803fcc 	andi	r2,r2,255
 2004310:	e0bff215 	stw	r2,-56(fp)
 2004314:	e0bff417 	ldw	r2,-48(fp)
 2004318:	e0fff517 	ldw	r3,-44(fp)
 200431c:	14802034 	orhi	r18,r2,128
 2004320:	1826b03a 	or	r19,r3,zero
 2004324:	e4bff415 	stw	r18,-48(fp)
 2004328:	e4fff515 	stw	r19,-44(fp)
 200432c:	e0bff217 	ldw	r2,-56(fp)
 2004330:	10bfe284 	addi	r2,r2,-118
 2004334:	e0bff215 	stw	r2,-56(fp)
 2004338:	e0bff217 	ldw	r2,-56(fp)
 200433c:	0080130e 	bge	zero,r2,200438c <sprintf_float+0x160>
 2004340:	e0bff417 	ldw	r2,-48(fp)
 2004344:	e0fff517 	ldw	r3,-44(fp)
 2004348:	e13ff217 	ldw	r4,-56(fp)
 200434c:	213ff804 	addi	r4,r4,-32
 2004350:	20000316 	blt	r4,zero,2004360 <sprintf_float+0x134>
 2004354:	1122983a 	sll	r17,r2,r4
 2004358:	0021883a 	mov	r16,zero
 200435c:	00001b06 	br	20043cc <sprintf_float+0x1a0>
 2004360:	100ad07a 	srli	r5,r2,1
 2004364:	018007c4 	movi	r6,31
 2004368:	e13ff217 	ldw	r4,-56(fp)
 200436c:	3109c83a 	sub	r4,r6,r4
 2004370:	2908d83a 	srl	r4,r5,r4
 2004374:	e17ff217 	ldw	r5,-56(fp)
 2004378:	1962983a 	sll	r17,r3,r5
 200437c:	2462b03a 	or	r17,r4,r17
 2004380:	e13ff217 	ldw	r4,-56(fp)
 2004384:	1120983a 	sll	r16,r2,r4
 2004388:	00001006 	br	20043cc <sprintf_float+0x1a0>
 200438c:	e0bff417 	ldw	r2,-48(fp)
 2004390:	e0fff517 	ldw	r3,-44(fp)
 2004394:	e13ff217 	ldw	r4,-56(fp)
 2004398:	0109c83a 	sub	r4,zero,r4
 200439c:	217ff804 	addi	r5,r4,-32
 20043a0:	28000316 	blt	r5,zero,20043b0 <sprintf_float+0x184>
 20043a4:	1961d83a 	sra	r16,r3,r5
 20043a8:	1823d7fa 	srai	r17,r3,31
 20043ac:	00000706 	br	20043cc <sprintf_float+0x1a0>
 20043b0:	180c907a 	slli	r6,r3,1
 20043b4:	014007c4 	movi	r5,31
 20043b8:	290bc83a 	sub	r5,r5,r4
 20043bc:	314a983a 	sll	r5,r6,r5
 20043c0:	1120d83a 	srl	r16,r2,r4
 20043c4:	2c20b03a 	or	r16,r5,r16
